ASxxxx Linker V03.00 + NoICE + sdld,  page 1.
Hexadecimal  [32-Bits]

Area                                    Addr        Size        Decimal Bytes (Attributes)
--------------------------------        ----        ----        ------- ----- ------------
.  .ABS.                            00000000    00000000 =           0. bytes (ABS,CON)

      Value  Global                              Global Defined In Module
      -----  --------------------------------   ------------------------
     FFFFFFFF  s_SSEG                          
     00000000  .__.ABS.                           stm8l15x_clk
     00000000  l_CABS                          
     00000000  l_DABS                          
     00000000  l_INITIALIZED                   
     00000000  l_INITIALIZER                   
     00000000  l__CODE                         
     00000000  s_CABS                          
     00000000  s_DABS                          
     00000000  s__CODE                         
     00000001  l_SSEG                          
     00000001  s_DATA                          
     00000003  l_GSFINAL                       
     0000001A  l_GSINIT                        
     00000032  l_DATA                          
     00000033  s_INITIALIZED                   
     00000073  l_HOME                          
     00000276  l_CONST                         
     000019D2  l_CODE                          
     00008000  s_HOME                          
     00008073  s_GSINIT                        
     0000808D  s_GSFINAL                       
     00008090  s_CONST                         
     00008306  s_CODE                          
     00008306  s_INITIALIZER                   

ASxxxx Linker V03.00 + NoICE + sdld,  page 2.
Hexadecimal  [32-Bits]

Area                                    Addr        Size        Decimal Bytes (Attributes)
--------------------------------        ----        ----        ------- ----- ------------
DATA                                00000001    00000032 =          50. bytes (REL,CON)

      Value  Global                              Global Defined In Module
      -----  --------------------------------   ------------------------
     00000001  G$SysTick$0_0$0                    main
     00000001  _SysTick                           main
     00000005  Fi2c$I2cTout$0_0$0                 i2c
     00000007  Fapplication$Rssi$0_0$0            application
     00000008  Fapplication$AckCount$0_0$0        application
     00000009  Fapplication$AckTimer$0_0$0        application
     0000000A  Fapplication$Temperature$0_0$0     application
     0000000C  Fapplication$Voltage$0_0$0         application
     0000000E  Fapplication$Humidity$0_0$0        application
     00000010  Fapplication$Illuminance$0_0$0     application
     00000012  Fapplication$State$0_0$0           application
     00000013  Fapplication$Data$0_0$0            application
ASxxxx Linker V03.00 + NoICE + sdld,  page 3.
Hexadecimal  [32-Bits]

Area                                    Addr        Size        Decimal Bytes (Attributes)
--------------------------------        ----        ----        ------- ----- ------------
SSEG                                FFFFFFFF    00000001 =           1. bytes (REL,CON)

      Value  Global                              Global Defined In Module
      -----  --------------------------------   ------------------------
ASxxxx Linker V03.00 + NoICE + sdld,  page 4.
Hexadecimal  [32-Bits]

Area                                    Addr        Size        Decimal Bytes (Attributes)
--------------------------------        ----        ----        ------- ----- ------------
HOME                                00008000    00000073 =         115. bytes (REL,CON)

      Value  Global                              Global Defined In Module
      -----  --------------------------------   ------------------------
     00008000  A$mainmain$81                      main
     00008004  A$mainmain$82                      main
     00008008  A$mainmain$83                      main
     0000800C  A$mainmain$84                      main
     00008010  A$mainmain$85                      main
     00008014  A$mainmain$86                      main
     00008018  A$mainmain$87                      main
     0000801C  A$mainmain$88                      main
     00008020  A$mainmain$89                      main
     00008024  A$mainmain$90                      main
     00008028  A$mainmain$91                      main
     0000802C  A$mainmain$92                      main
     00008030  A$mainmain$93                      main
     00008034  A$mainmain$94                      main
     00008038  A$mainmain$95                      main
     0000803C  A$mainmain$96                      main
     00008040  A$mainmain$97                      main
     00008044  A$mainmain$98                      main
     00008048  A$mainmain$99                      main
     0000804C  A$mainmain$100                     main
     00008050  A$mainmain$101                     main
     00008054  A$mainmain$102                     main
     00008058  A$mainmain$103                     main
     0000805C  A$mainmain$104                     main
     00008060  A$mainmain$105                     main
     00008064  A$mainmain$106                     main
     00008068  A$mainmain$107                     main
     0000806C  A$mainmain$108                     main
     00008070  A$mainmain$143                     main

ASxxxx Linker V03.00 + NoICE + sdld,  page 5.
Hexadecimal  [32-Bits]

Area                                    Addr        Size        Decimal Bytes (Attributes)
--------------------------------        ----        ----        ------- ----- ------------
GSINIT                              00008073    0000001A =          26. bytes (REL,CON)

      Value  Global                              Global Defined In Module
      -----  --------------------------------   ------------------------
     00008073  A$mainmain$119                     main
     00008076  A$mainmain$120                     main
     00008078  A$mainmain$122                     main
     0000807C  A$mainmain$123                     main
     0000807D  A$mainmain$124                     main
     0000807F  A$mainmain$126                     main
     00008082  A$mainmain$127                     main
     00008084  A$mainmain$129                     main
     00008087  A$mainmain$130                     main
     0000808A  A$mainmain$131                     main
     0000808B  A$mainmain$132                     main

ASxxxx Linker V03.00 + NoICE + sdld,  page 6.
Hexadecimal  [32-Bits]

Area                                    Addr        Size        Decimal Bytes (Attributes)
--------------------------------        ----        ----        ------- ----- ------------
GSFINAL                             0000808D    00000003 =           3. bytes (REL,CON)

      Value  Global                              Global Defined In Module
      -----  --------------------------------   ------------------------
     0000808D  A$mainmain$136                     main

ASxxxx Linker V03.00 + NoICE + sdld,  page 7.
Hexadecimal  [32-Bits]

Area                                    Addr        Size        Decimal Bytes (Attributes)
--------------------------------        ----        ----        ------- ----- ------------
CONST                               00008090    00000276 =         630. bytes (REL,CON)

      Value  Global                              Global Defined In Module
      -----  --------------------------------   ------------------------
     00008090  Fnvdata$__str_0$0_0$0              nvdata
     0000809E  Fsi4432$RxMask$0_0$0               si4432
     000080A2  Fsi4432$RxHeader$0_0$0             si4432
     000080A6  Fsi4432$SyncWord$0_0$0             si4432
     000080AA  Fsi4432$FreqData$0_0$0             si4432
     00008179  Fsi4432$RateData$0_0$0             si4432
     00008251  Fsi4432$__str_0$0_0$0              si4432
     0000826E  Fapplication$__str_0$0_0$0         application
     00008301  G$SYSDivFactor$0_0$0               stm8l15x_clk
     00008301  _SYSDivFactor                      stm8l15x_clk

ASxxxx Linker V03.00 + NoICE + sdld,  page 8.
Hexadecimal  [32-Bits]

Area                                    Addr        Size        Decimal Bytes (Attributes)
--------------------------------        ----        ----        ------- ----- ------------
CODE                                00008306    000019D2 =        6610. bytes (REL,CON)

      Value  Global                              Global Defined In Module
      -----  --------------------------------   ------------------------
     00008306  A$mainmain$158                     main
     00008306  C$main.c$17$0_0$680                main
     00008306  C$main.c$19$1_0$680                main
     00008306  G$main$0$0                         main
     00008306  _main                              main
     00008309  A$mainmain$161                     main
     00008309  C$main.c$20$1_0$680                main
     0000830C  A$mainmain$164                     main
     0000830C  C$main.c$21$1_0$680                main
     0000830F  A$mainmain$167                     main
     0000830F  C$main.c$22$1_0$680                main
     00008312  A$mainmain$170                     main
     00008312  C$main.c$23$1_0$680                main
     00008315  A$mainmain$173                     main
     00008315  C$main.c$25$1_0$680                main
     00008318  A$mainmain$179                     main
     00008318  C$main.c$26$1_0$680                main
     00008318  C$main.c$28$2_0$681                main
     0000831B  A$mainmain$180                     main
     0000831D  A$mainmain$185                     main
     0000831D  C$main.c$30$1_0$680                main
     0000831D  XG$main$0$0                        main
     0000831E  A$mainmain$196                     main
     0000831E  C$main.c$32$1_0$683                main
     0000831E  C$main.c$34$1_0$683                main
     0000831E  G$getchar$0$0                      main
     0000831E  _getchar                           main
     00008320  A$mainmain$197                     main
     00008322  A$mainmain$198                     main
     00008324  A$mainmain$199                     main
     00008326  A$mainmain$200                     main
     00008329  A$mainmain$201                     main
     0000832B  A$mainmain$202                     main
     0000832C  A$mainmain$203                     main
     0000832E  A$mainmain$206                     main
     0000832E  C$main.c$38$1_0$683                main
     00008330  A$mainmain$207                     main
     00008332  A$mainmain$208                     main
     00008335  A$mainmain$209                     main
     00008336  A$mainmain$210                     main
     00008337  A$mainmain$211                     main
     00008338  A$mainmain$216                     main
     00008338  C$main.c$39$1_0$683                main
     00008338  XG$getchar$0$0                     main
     00008339  A$mainmain$226                     main
     00008339  C$main.c$41$1_0$686                main
     00008339  C$main.c$43$1_0$686                main
     00008339  G$putchar$0$0                      main
     00008339  _putchar                           main
     0000833B  A$mainmain$227                     main
ASxxxx Linker V03.00 + NoICE + sdld,  page 9.
Hexadecimal  [32-Bits]

Area                                    Addr        Size        Decimal Bytes (Attributes)
--------------------------------        ----        ----        ------- ----- ------------
CODE                                00008306    000019D2 =        6610. bytes (REL,CON)

      Value  Global                              Global Defined In Module
      -----  --------------------------------   ------------------------
     0000833C  A$mainmain$228                     main
     0000833E  A$mainmain$229                     main
     00008340  A$mainmain$230                     main
     00008343  A$mainmain$231                     main
     00008345  A$mainmain$235                     main
     00008345  C$main.c$45$1_0$686                main
     00008347  A$mainmain$236                     main
     00008349  A$mainmain$237                     main
     0000834B  A$mainmain$238                     main
     0000834D  A$mainmain$239                     main
     00008350  A$mainmain$240                     main
     00008352  A$mainmain$241                     main
     00008353  A$mainmain$242                     main
     00008355  A$mainmain$246                     main
     00008355  C$main.c$48$1_0$686                main
     00008357  A$mainmain$247                     main
     00008359  A$mainmain$248                     main
     0000835B  A$mainmain$249                     main
     0000835D  A$mainmain$250                     main
     00008360  A$mainmain$251                     main
     00008362  A$mainmain$252                     main
     00008363  A$mainmain$253                     main
     00008365  A$mainmain$256                     main
     00008365  C$main.c$51$1_0$686                main
     00008366  A$mainmain$261                     main
     00008366  C$main.c$52$1_0$686                main
     00008366  XG$putchar$0$0                     main
     00008367  A$mainmain$269                     main
     00008367  C$main.c$54$1_0$690                main
     00008367  G$HAL_MsDelay$0$0                  main
     00008367  _HAL_MsDelay                       main
     00008369  A$mainmain$272                     main
     00008369  C$main.c$56$1_0$690                main
     0000836B  A$mainmain$273                     main
     0000836C  A$mainmain$274                     main
     0000836E  A$mainmain$275                     main
     00008372  A$mainmain$276                     main
     00008375  A$mainmain$277                     main
     00008377  A$mainmain$278                     main
     00008379  A$mainmain$279                     main
     0000837C  A$mainmain$280                     main
     0000837E  A$mainmain$281                     main
     00008380  A$mainmain$285                     main
     00008380  C$main.c$57$1_0$690                main
     00008382  A$mainmain$286                     main
     00008385  A$mainmain$287                     main
     00008387  A$mainmain$288                     main
     0000838B  A$mainmain$289                     main
     0000838D  A$mainmain$293                     main
     0000838D  C$main.c$59$2_0$691                main
     0000838E  A$mainmain$294                     main
ASxxxx Linker V03.00 + NoICE + sdld,  page 10.
Hexadecimal  [32-Bits]

Area                                    Addr        Size        Decimal Bytes (Attributes)
--------------------------------        ----        ----        ------- ----- ------------
CODE                                00008306    000019D2 =        6610. bytes (REL,CON)

      Value  Global                              Global Defined In Module
      -----  --------------------------------   ------------------------
     00008390  A$mainmain$298                     main
     00008392  A$mainmain$301                     main
     00008392  C$main.c$61$1_0$690                main
     00008392  XG$HAL_MsDelay$0$0                 main
     00008393  A$mainmain$309                     main
     00008393  C$main.c$63$1_0$693                main
     00008393  G$RTC_CSSLSE_IRQHandler$0$0        main
     00008393  _RTC_CSSLSE_IRQHandler             main
     00008394  A$mainmain$312                     main
     00008394  C$main.c$65$1_0$693                main
     00008397  A$mainmain$315                     main
     00008397  C$main.c$66$1_0$693                main
     00008399  A$mainmain$316                     main
     0000839B  A$mainmain$317                     main
     0000839E  A$mainmain$318                     main
     0000839F  A$mainmain$323                     main
     0000839F  C$main.c$67$1_0$693                main
     0000839F  XG$RTC_CSSLSE_IRQHandler$0$0       main
     000083A0  A$mainmain$331                     main
     000083A0  C$main.c$69$1_0$695                main
     000083A0  G$EXTI0_IRQHandler$0$0             main
     000083A0  _EXTI0_IRQHandler                  main
     000083A1  A$mainmain$334                     main
     000083A1  C$main.c$71$1_0$695                main
     000083A4  A$mainmain$337                     main
     000083A4  C$main.c$72$1_0$695                main
     000083A6  A$mainmain$338                     main
     000083A8  A$mainmain$339                     main
     000083AB  A$mainmain$340                     main
     000083AC  A$mainmain$345                     main
     000083AC  C$main.c$73$1_0$695                main
     000083AC  XG$EXTI0_IRQHandler$0$0            main
     000083AD  A$mainmain$353                     main
     000083AD  C$main.c$75$1_0$697                main
     000083AD  G$TIM4_UPD_OVF_TRG_IRQHandler$0$   main
     000083AD  _TIM4_UPD_OVF_TRG_IRQHandler       main
     000083AE  A$mainmain$356                     main
     000083AE  C$main.c$77$1_0$697                main
     000083B1  A$mainmain$357                     main
     000083B5  A$mainmain$358                     main
     000083B6  A$mainmain$359                     main
     000083B8  A$mainmain$360                     main
     000083BA  A$mainmain$362                     main
     000083BD  A$mainmain$363                     main
     000083C1  A$mainmain$366                     main
     000083C1  C$main.c$78$1_0$697                main
     000083C4  A$mainmain$369                     main
     000083C4  C$main.c$79$1_0$697                main
     000083C7  A$mainmain$372                     main
     000083C7  C$main.c$80$1_0$697                main
     000083C9  A$mainmain$373                     main
ASxxxx Linker V03.00 + NoICE + sdld,  page 11.
Hexadecimal  [32-Bits]

Area                                    Addr        Size        Decimal Bytes (Attributes)
--------------------------------        ----        ----        ------- ----- ------------
CODE                                00008306    000019D2 =        6610. bytes (REL,CON)

      Value  Global                              Global Defined In Module
      -----  --------------------------------   ------------------------
     000083CC  A$mainmain$374                     main
     000083CD  A$mainmain$379                     main
     000083CD  C$main.c$81$1_0$697                main
     000083CD  XG$TIM4_UPD_OVF_TRG_IRQHandler$0   main
     000083CE  A$mainmain$389                     main
     000083CE  C$main.c$83$1_0$699                main
     000083CE  C$main.c$85$1_0$699                main
     000083CE  Fmain$CLK_Config$0$0               main
     000083D0  A$mainmain$390                     main
     000083D3  A$mainmain$391                     main
     000083D4  A$mainmain$396                     main
     000083D4  C$main.c$86$1_0$699                main
     000083D4  XFmain$CLK_Config$0$0              main
     000083D5  A$mainmain$406                     main
     000083D5  C$main.c$88$1_0$701                main
     000083D5  C$main.c$90$1_0$701                main
     000083D5  Fmain$RTC_Config$0$0               main
     000083D7  A$mainmain$407                     main
     000083D9  A$mainmain$408                     main
     000083DC  A$mainmain$409                     main
     000083DD  A$mainmain$413                     main
     000083DD  C$main.c$91$1_0$701                main
     000083DF  A$mainmain$414                     main
     000083E2  A$mainmain$415                     main
     000083E4  A$mainmain$416                     main
     000083E5  A$mainmain$417                     main
     000083E7  A$mainmain$420                     main
     000083E7  C$main.c$95$1_0$701                main
     000083E9  A$mainmain$421                     main
     000083EB  A$mainmain$422                     main
     000083EE  A$mainmain$423                     main
     000083EF  A$mainmain$426                     main
     000083EF  C$main.c$97$1_0$701                main
     000083F1  A$mainmain$427                     main
     000083F4  A$mainmain$428                     main
     000083F5  A$mainmain$431                     main
     000083F5  C$main.c$98$1_0$701                main
     000083F7  A$mainmain$432                     main
     000083F9  A$mainmain$433                     main
     000083FB  A$mainmain$434                     main
     000083FE  A$mainmain$435                     main
     00008400  A$mainmain$440                     main
     00008400  C$main.c$99$1_0$701                main
     00008400  XFmain$RTC_Config$0$0              main
     00008401  A$mainmain$450                     main
     00008401  C$main.c$101$1_0$704               main
     00008401  C$main.c$112$1_0$704               main
     00008401  Fmain$TIM4_Config$0$0              main
     00008403  A$mainmain$451                     main
     00008405  A$mainmain$452                     main
     00008408  A$mainmain$453                     main
ASxxxx Linker V03.00 + NoICE + sdld,  page 12.
Hexadecimal  [32-Bits]

Area                                    Addr        Size        Decimal Bytes (Attributes)
--------------------------------        ----        ----        ------- ----- ------------
CODE                                00008306    000019D2 =        6610. bytes (REL,CON)

      Value  Global                              Global Defined In Module
      -----  --------------------------------   ------------------------
     00008409  A$mainmain$456                     main
     00008409  C$main.c$114$1_0$704               main
     0000840B  A$mainmain$457                     main
     0000840D  A$mainmain$458                     main
     00008410  A$mainmain$459                     main
     00008411  A$mainmain$462                     main
     00008411  C$main.c$115$1_0$704               main
     00008413  A$mainmain$463                     main
     00008416  A$mainmain$464                     main
     00008417  A$mainmain$467                     main
     00008417  C$main.c$116$1_0$704               main
     00008419  A$mainmain$468                     main
     0000841B  A$mainmain$469                     main
     0000841E  A$mainmain$470                     main
     0000841F  A$mainmain$473                     main
     0000841F  C$main.c$117$1_0$704               main
     00008421  A$mainmain$474                     main
     00008424  A$mainmain$475                     main
     00008425  A$mainmain$480                     main
     00008425  C$main.c$118$1_0$704               main
     00008425  XFmain$TIM4_Config$0$0             main
     00008426  A$mainmain$490                     main
     00008426  C$main.c$120$1_0$706               main
     00008426  C$main.c$122$1_0$706               main
     00008426  Fmain$UART_Config$0$0              main
     00008428  A$mainmain$491                     main
     0000842A  A$mainmain$492                     main
     0000842D  A$mainmain$493                     main
     0000842E  A$mainmain$496                     main
     0000842E  C$main.c$124$1_0$706               main
     00008430  A$mainmain$497                     main
     00008432  A$mainmain$498                     main
     00008434  A$mainmain$499                     main
     00008436  A$mainmain$500                     main
     00008439  A$mainmain$501                     main
     0000843B  A$mainmain$504                     main
     0000843B  C$main.c$125$1_0$706               main
     0000843D  A$mainmain$505                     main
     0000843F  A$mainmain$506                     main
     00008441  A$mainmain$507                     main
     00008443  A$mainmain$508                     main
     00008446  A$mainmain$509                     main
     00008448  A$mainmain$512                     main
     00008448  C$main.c$127$1_0$706               main
     0000844A  A$mainmain$513                     main
     0000844C  A$mainmain$514                     main
     0000844E  A$mainmain$515                     main
     00008451  A$mainmain$516                     main
     00008453  A$mainmain$519                     main
     00008453  C$main.c$129$1_0$706               main
     00008455  A$mainmain$520                     main
ASxxxx Linker V03.00 + NoICE + sdld,  page 13.
Hexadecimal  [32-Bits]

Area                                    Addr        Size        Decimal Bytes (Attributes)
--------------------------------        ----        ----        ------- ----- ------------
CODE                                00008306    000019D2 =        6610. bytes (REL,CON)

      Value  Global                              Global Defined In Module
      -----  --------------------------------   ------------------------
     00008457  A$mainmain$521                     main
     00008459  A$mainmain$522                     main
     0000845B  A$mainmain$523                     main
     0000845D  A$mainmain$524                     main
     0000845F  A$mainmain$525                     main
     00008461  A$mainmain$526                     main
     00008463  A$mainmain$527                     main
     00008465  A$mainmain$528                     main
     00008467  A$mainmain$529                     main
     0000846A  A$mainmain$530                     main
     0000846C  A$mainmain$533                     main
     0000846C  C$main.c$130$1_0$706               main
     0000846E  A$mainmain$534                     main
     00008470  A$mainmain$535                     main
     00008472  A$mainmain$536                     main
     00008475  A$mainmain$537                     main
     00008477  A$mainmain$542                     main
     00008477  C$main.c$131$1_0$706               main
     00008477  XFmain$UART_Config$0$0             main
     00008478  A$mainmain$552                     main
     00008478  C$main.c$133$1_0$708               main
     00008478  C$main.c$135$1_0$708               main
     00008478  Fmain$GPIO_Config$0$0              main
     0000847A  A$mainmain$553                     main
     0000847C  A$mainmain$554                     main
     0000847E  A$mainmain$555                     main
     00008480  A$mainmain$556                     main
     00008483  A$mainmain$557                     main
     00008485  A$mainmain$560                     main
     00008485  C$main.c$136$1_0$708               main
     00008487  A$mainmain$561                     main
     00008489  A$mainmain$562                     main
     0000848B  A$mainmain$563                     main
     0000848D  A$mainmain$564                     main
     00008490  A$mainmain$565                     main
     00008492  A$mainmain$568                     main
     00008492  C$main.c$137$1_0$708               main
     00008494  A$mainmain$569                     main
     00008496  A$mainmain$570                     main
     00008498  A$mainmain$571                     main
     0000849A  A$mainmain$572                     main
     0000849D  A$mainmain$573                     main
     0000849F  A$mainmain$578                     main
     0000849F  C$main.c$138$1_0$708               main
     0000849F  XFmain$GPIO_Config$0$0             main
     000084A0  A$i2c/i2c$71                       i2c
     000084A0  C$i2c.c$14$0_0$636                 i2c
     000084A0  C$i2c.c$16$1_0$636                 i2c
     000084A0  G$I2cInit$0$0                      i2c
     000084A0  _I2cInit                           i2c
     000084A2  A$i2c/i2c$72                       i2c
ASxxxx Linker V03.00 + NoICE + sdld,  page 14.
Hexadecimal  [32-Bits]

Area                                    Addr        Size        Decimal Bytes (Attributes)
--------------------------------        ----        ----        ------- ----- ------------
CODE                                00008306    000019D2 =        6610. bytes (REL,CON)

      Value  Global                              Global Defined In Module
      -----  --------------------------------   ------------------------
     000084A4  A$i2c/i2c$73                       i2c
     000084A7  A$i2c/i2c$74                       i2c
     000084A8  A$i2c/i2c$77                       i2c
     000084A8  C$i2c.c$18$1_0$636                 i2c
     000084AA  A$i2c/i2c$78                       i2c
     000084AC  A$i2c/i2c$79                       i2c
     000084AE  A$i2c/i2c$80                       i2c
     000084B0  A$i2c/i2c$81                       i2c
     000084B3  A$i2c/i2c$82                       i2c
     000084B5  A$i2c/i2c$85                       i2c
     000084B5  C$i2c.c$19$1_0$636                 i2c
     000084B7  A$i2c/i2c$86                       i2c
     000084B9  A$i2c/i2c$87                       i2c
     000084BB  A$i2c/i2c$88                       i2c
     000084BD  A$i2c/i2c$89                       i2c
     000084C0  A$i2c/i2c$90                       i2c
     000084C2  A$i2c/i2c$93                       i2c
     000084C2  C$i2c.c$21$1_0$636                 i2c
     000084C4  A$i2c/i2c$94                       i2c
     000084C6  A$i2c/i2c$95                       i2c
     000084C8  A$i2c/i2c$96                       i2c
     000084CA  A$i2c/i2c$97                       i2c
     000084CC  A$i2c/i2c$98                       i2c
     000084CE  A$i2c/i2c$99                       i2c
     000084D0  A$i2c/i2c$100                      i2c
     000084D2  A$i2c/i2c$101                      i2c
     000084D4  A$i2c/i2c$102                      i2c
     000084D6  A$i2c/i2c$103                      i2c
     000084D8  A$i2c/i2c$104                      i2c
     000084DA  A$i2c/i2c$105                      i2c
     000084DD  A$i2c/i2c$106                      i2c
     000084DF  A$i2c/i2c$109                      i2c
     000084DF  C$i2c.c$22$1_0$636                 i2c
     000084E1  A$i2c/i2c$110                      i2c
     000084E3  A$i2c/i2c$111                      i2c
     000084E5  A$i2c/i2c$112                      i2c
     000084E7  A$i2c/i2c$113                      i2c
     000084E9  A$i2c/i2c$114                      i2c
     000084EC  A$i2c/i2c$115                      i2c
     000084EE  A$i2c/i2c$118                      i2c
     000084EE  C$i2c.c$23$1_0$636                 i2c
     000084F0  A$i2c/i2c$119                      i2c
     000084F2  A$i2c/i2c$120                      i2c
     000084F4  A$i2c/i2c$121                      i2c
     000084F7  A$i2c/i2c$122                      i2c
     000084F9  A$i2c/i2c$127                      i2c
     000084F9  C$i2c.c$24$1_0$636                 i2c
     000084F9  XG$I2cInit$0$0                     i2c
     000084FA  A$i2c/i2c$137                      i2c
     000084FA  C$i2c.c$26$1_0$638                 i2c
     000084FA  C$i2c.c$28$1_0$638                 i2c
ASxxxx Linker V03.00 + NoICE + sdld,  page 15.
Hexadecimal  [32-Bits]

Area                                    Addr        Size        Decimal Bytes (Attributes)
--------------------------------        ----        ----        ------- ----- ------------
CODE                                00008306    000019D2 =        6610. bytes (REL,CON)

      Value  Global                              Global Defined In Module
      -----  --------------------------------   ------------------------
     000084FA  G$I2cWriteRead$0$0                 i2c
     000084FA  _I2cWriteRead                      i2c
     000084FB  A$i2c/i2c$138                      i2c
     000084FE  A$i2c/i2c$139                      i2c
     00008500  A$i2c/i2c$140                      i2c
     00008501  A$i2c/i2c$141                      i2c
     00008503  A$i2c/i2c$142                      i2c
     00008504  A$i2c/i2c$143                      i2c
     00008507  A$i2c/i2c$144                      i2c
     00008509  A$i2c/i2c$145                      i2c
     0000850A  A$i2c/i2c$148                      i2c
     0000850A  C$i2c.c$29$1_0$638                 i2c
     0000850B  A$i2c/i2c$149                      i2c
     0000850D  A$i2c/i2c$152                      i2c
     0000850D  C$i2c.c$31$2_0$639                 i2c
     0000850F  A$i2c/i2c$153                      i2c
     00008510  A$i2c/i2c$154                      i2c
     00008512  A$i2c/i2c$155                      i2c
     00008513  A$i2c/i2c$156                      i2c
     00008515  A$i2c/i2c$157                      i2c
     00008516  A$i2c/i2c$158                      i2c
     00008519  A$i2c/i2c$159                      i2c
     0000851B  A$i2c/i2c$160                      i2c
     0000851C  A$i2c/i2c$164                      i2c
     0000851C  C$i2c.c$34$1_0$638                 i2c
     0000851D  A$i2c/i2c$169                      i2c
     0000851D  C$i2c.c$35$1_0$638                 i2c
     0000851D  XG$I2cWriteRead$0$0                i2c
     0000851E  A$i2c/i2c$177                      i2c
     0000851E  C$i2c.c$37$1_0$641                 i2c
     0000851E  G$I2cRead$0$0                      i2c
     0000851E  _I2cRead                           i2c
     0000851F  A$i2c/i2c$180                      i2c
     0000851F  C$i2c.c$39$1_0$641                 i2c
     00008522  A$i2c/i2c$181                      i2c
     00008525  A$i2c/i2c$185                      i2c
     00008525  C$i2c.c$42$1_0$641                 i2c
     00008528  A$i2c/i2c$186                      i2c
     0000852A  A$i2c/i2c$187                      i2c
     0000852C  A$i2c/i2c$188                      i2c
     0000852F  A$i2c/i2c$189                      i2c
     00008531  A$i2c/i2c$192                      i2c
     00008531  C$i2c.c$44$2_0$642                 i2c
     00008535  A$i2c/i2c$196                      i2c
     00008535  C$i2c.c$45$2_0$642                 i2c
     00008538  A$i2c/i2c$197                      i2c
     0000853A  A$i2c/i2c$198                      i2c
     0000853C  A$i2c/i2c$199                      i2c
     0000853F  A$i2c/i2c$200                      i2c
     00008541  A$i2c/i2c$201                      i2c
     00008543  A$i2c/i2c$205                      i2c
ASxxxx Linker V03.00 + NoICE + sdld,  page 16.
Hexadecimal  [32-Bits]

Area                                    Addr        Size        Decimal Bytes (Attributes)
--------------------------------        ----        ----        ------- ----- ------------
CODE                                00008306    000019D2 =        6610. bytes (REL,CON)

      Value  Global                              Global Defined In Module
      -----  --------------------------------   ------------------------
     00008543  C$i2c.c$49$1_0$641                 i2c
     00008547  A$i2c/i2c$208                      i2c
     00008547  C$i2c.c$52$1_0$641                 i2c
     0000854B  A$i2c/i2c$212                      i2c
     0000854B  C$i2c.c$53$1_0$641                 i2c
     0000854E  A$i2c/i2c$213                      i2c
     0000854F  A$i2c/i2c$214                      i2c
     00008551  A$i2c/i2c$215                      i2c
     00008554  A$i2c/i2c$216                      i2c
     00008556  A$i2c/i2c$220                      i2c
     00008556  C$i2c.c$58$1_0$641                 i2c
     00008559  A$i2c/i2c$221                      i2c
     0000855B  A$i2c/i2c$224                      i2c
     0000855B  C$i2c.c$60$2_0$645                 i2c
     0000855D  A$i2c/i2c$225                      i2c
     0000855F  A$i2c/i2c$226                      i2c
     00008562  A$i2c/i2c$230                      i2c
     00008562  C$i2c.c$62$1_0$641                 i2c
     00008565  A$i2c/i2c$231                      i2c
     00008567  A$i2c/i2c$232                      i2c
     00008569  A$i2c/i2c$233                      i2c
     0000856C  A$i2c/i2c$234                      i2c
     0000856E  A$i2c/i2c$238                      i2c
     0000856E  C$i2c.c$67$1_0$641                 i2c
     00008570  A$i2c/i2c$239                      i2c
     00008572  A$i2c/i2c$240                      i2c
     00008574  A$i2c/i2c$241                      i2c
     00008577  A$i2c/i2c$245                      i2c
     00008577  C$i2c.c$69$2_0$647                 i2c
     0000857A  A$i2c/i2c$248                      i2c
     0000857A  C$i2c.c$70$1_0$641                 i2c
     0000857C  A$i2c/i2c$249                      i2c
     0000857E  A$i2c/i2c$250                      i2c
     00008580  A$i2c/i2c$252                      i2c
     00008582  A$i2c/i2c$253                      i2c
     00008584  A$i2c/i2c$254                      i2c
     00008586  A$i2c/i2c$255                      i2c
     0000858A  A$i2c/i2c$256                      i2c
     0000858C  A$i2c/i2c$260                      i2c
     0000858C  C$i2c.c$72$3_0$648                 i2c
     0000858F  A$i2c/i2c$261                      i2c
     00008591  A$i2c/i2c$262                      i2c
     00008593  A$i2c/i2c$263                      i2c
     00008597  A$i2c/i2c$264                      i2c
     00008599  A$i2c/i2c$268                      i2c
     00008599  C$i2c.c$75$3_0$648                 i2c
     0000859C  A$i2c/i2c$269                      i2c
     0000859D  A$i2c/i2c$270                      i2c
     0000859E  A$i2c/i2c$273                      i2c
     0000859E  C$i2c.c$76$3_0$648                 i2c
     000085A0  A$i2c/i2c$274                      i2c
ASxxxx Linker V03.00 + NoICE + sdld,  page 17.
Hexadecimal  [32-Bits]

Area                                    Addr        Size        Decimal Bytes (Attributes)
--------------------------------        ----        ----        ------- ----- ------------
CODE                                00008306    000019D2 =        6610. bytes (REL,CON)

      Value  Global                              Global Defined In Module
      -----  --------------------------------   ------------------------
     000085A2  A$i2c/i2c$278                      i2c
     000085A2  C$i2c.c$79$1_0$641                 i2c
     000085A4  A$i2c/i2c$280                      i2c
     000085A7  A$i2c/i2c$281                      i2c
     000085A9  A$i2c/i2c$282                      i2c
     000085AB  A$i2c/i2c$283                      i2c
     000085AE  A$i2c/i2c$284                      i2c
     000085B0  A$i2c/i2c$288                      i2c
     000085B0  C$i2c.c$82$2_0$647                 i2c
     000085B3  A$i2c/i2c$289                      i2c
     000085B5  A$i2c/i2c$290                      i2c
     000085B8  A$i2c/i2c$293                      i2c
     000085B8  C$i2c.c$83$2_0$647                 i2c
     000085B9  A$i2c/i2c$296                      i2c
     000085B9  C$i2c.c$84$2_0$647                 i2c
     000085BB  A$i2c/i2c$297                      i2c
     000085BE  A$i2c/i2c$298                      i2c
     000085BF  A$i2c/i2c$299                      i2c
     000085C0  A$i2c/i2c$300                      i2c
     000085C2  A$i2c/i2c$303                      i2c
     000085C2  C$i2c.c$85$2_0$647                 i2c
     000085C6  A$i2c/i2c$306                      i2c
     000085C6  C$i2c.c$86$2_0$647                 i2c
     000085C8  A$i2c/i2c$307                      i2c
     000085CB  A$i2c/i2c$308                      i2c
     000085CC  A$i2c/i2c$309                      i2c
     000085CD  A$i2c/i2c$310                      i2c
     000085CF  A$i2c/i2c$313                      i2c
     000085CF  C$i2c.c$87$2_0$647                 i2c
     000085D0  A$i2c/i2c$317                      i2c
     000085D0  C$i2c.c$88$2_0$647                 i2c
     000085D3  A$i2c/i2c$318                      i2c
     000085D5  A$i2c/i2c$319                      i2c
     000085D7  A$i2c/i2c$320                      i2c
     000085DA  A$i2c/i2c$321                      i2c
     000085DC  A$i2c/i2c$325                      i2c
     000085DC  C$i2c.c$91$2_0$647                 i2c
     000085DE  A$i2c/i2c$326                      i2c
     000085E1  A$i2c/i2c$327                      i2c
     000085E2  A$i2c/i2c$328                      i2c
     000085E5  A$i2c/i2c$332                      i2c
     000085E5  C$i2c.c$44$1_0$641                 i2c
     000085E8  A$i2c/i2c$335                      i2c
     000085E8  C$i2c.c$95$2_0$652                 i2c
     000085E9  A$i2c/i2c$336                      i2c
     000085EB  A$i2c/i2c$337                      i2c
     000085ED  A$i2c/i2c$338                      i2c
     000085EE  A$i2c/i2c$339                      i2c
     000085F0  A$i2c/i2c$342                      i2c
     000085F0  C$i2c.c$97$3_0$653                 i2c
     000085F2  A$i2c/i2c$343                      i2c
ASxxxx Linker V03.00 + NoICE + sdld,  page 18.
Hexadecimal  [32-Bits]

Area                                    Addr        Size        Decimal Bytes (Attributes)
--------------------------------        ----        ----        ------- ----- ------------
CODE                                00008306    000019D2 =        6610. bytes (REL,CON)

      Value  Global                              Global Defined In Module
      -----  --------------------------------   ------------------------
     000085F5  A$i2c/i2c$346                      i2c
     000085F5  C$i2c.c$98$3_0$653                 i2c
     000085F6  A$i2c/i2c$349                      i2c
     000085F6  C$i2c.c$99$3_0$653                 i2c
     000085F9  A$i2c/i2c$352                      i2c
     000085F9  C$i2c.c$100$3_0$653                i2c
     000085FC  A$i2c/i2c$353                      i2c
     000085FE  A$i2c/i2c$354                      i2c
     00008601  A$i2c/i2c$357                      i2c
     00008601  C$i2c.c$101$3_0$653                i2c
     00008602  A$i2c/i2c$361                      i2c
     00008602  C$i2c.c$102$3_0$653                i2c
     00008605  A$i2c/i2c$362                      i2c
     00008607  A$i2c/i2c$363                      i2c
     00008609  A$i2c/i2c$364                      i2c
     0000860C  A$i2c/i2c$365                      i2c
     0000860E  A$i2c/i2c$369                      i2c
     0000860E  C$i2c.c$105$3_0$653                i2c
     0000860F  A$i2c/i2c$372                      i2c
     0000860F  C$i2c.c$106$3_0$653                i2c
     00008613  A$i2c/i2c$375                      i2c
     00008613  C$i2c.c$107$3_0$653                i2c
     00008615  A$i2c/i2c$376                      i2c
     00008618  A$i2c/i2c$377                      i2c
     00008619  A$i2c/i2c$378                      i2c
     0000861A  A$i2c/i2c$379                      i2c
     0000861C  A$i2c/i2c$382                      i2c
     0000861C  C$i2c.c$108$3_0$653                i2c
     0000861D  A$i2c/i2c$385                      i2c
     0000861D  C$i2c.c$109$3_0$653                i2c
     0000861F  A$i2c/i2c$386                      i2c
     00008622  A$i2c/i2c$387                      i2c
     00008623  A$i2c/i2c$388                      i2c
     00008625  A$i2c/i2c$392                      i2c
     00008625  C$i2c.c$113$3_0$655                i2c
     00008627  A$i2c/i2c$393                      i2c
     0000862A  A$i2c/i2c$396                      i2c
     0000862A  C$i2c.c$114$3_0$655                i2c
     0000862B  A$i2c/i2c$399                      i2c
     0000862B  C$i2c.c$115$3_0$655                i2c
     0000862E  A$i2c/i2c$402                      i2c
     0000862E  C$i2c.c$116$3_0$655                i2c
     00008631  A$i2c/i2c$403                      i2c
     00008633  A$i2c/i2c$404                      i2c
     00008636  A$i2c/i2c$407                      i2c
     00008636  C$i2c.c$117$3_0$655                i2c
     00008637  A$i2c/i2c$411                      i2c
     00008637  C$i2c.c$118$3_0$655                i2c
     0000863A  A$i2c/i2c$412                      i2c
     0000863C  A$i2c/i2c$413                      i2c
     0000863E  A$i2c/i2c$414                      i2c
ASxxxx Linker V03.00 + NoICE + sdld,  page 19.
Hexadecimal  [32-Bits]

Area                                    Addr        Size        Decimal Bytes (Attributes)
--------------------------------        ----        ----        ------- ----- ------------
CODE                                00008306    000019D2 =        6610. bytes (REL,CON)

      Value  Global                              Global Defined In Module
      -----  --------------------------------   ------------------------
     00008641  A$i2c/i2c$415                      i2c
     00008643  A$i2c/i2c$419                      i2c
     00008643  C$i2c.c$121$3_0$655                i2c
     00008645  A$i2c/i2c$420                      i2c
     00008648  A$i2c/i2c$421                      i2c
     00008649  A$i2c/i2c$425                      i2c
     00008649  C$i2c.c$126$1_0$641                i2c
     0000864C  A$i2c/i2c$426                      i2c
     0000864E  A$i2c/i2c$427                      i2c
     00008650  A$i2c/i2c$428                      i2c
     00008653  A$i2c/i2c$429                      i2c
     00008655  A$i2c/i2c$433                      i2c
     00008655  C$i2c.c$129$1_0$641                i2c
     00008659  A$i2c/i2c$436                      i2c
     00008659  C$i2c.c$131$1_0$641                i2c
     0000865C  A$i2c/i2c$437                      i2c
     0000865F  A$i2c/i2c$438                      i2c
     00008660  A$i2c/i2c$439                      i2c
     00008661  A$i2c/i2c$440                      i2c
     00008663  A$i2c/i2c$443                      i2c
     00008665  A$i2c/i2c$446                      i2c
     00008665  C$i2c.c$132$1_0$641                i2c
     00008665  XG$I2cRead$0$0                     i2c
     00008666  A$i2c/i2c$454                      i2c
     00008666  C$i2c.c$134$1_0$659                i2c
     00008666  G$I2cWrite$0$0                     i2c
     00008666  _I2cWrite                          i2c
     00008667  A$i2c/i2c$457                      i2c
     00008667  C$i2c.c$138$1_0$659                i2c
     0000866A  A$i2c/i2c$458                      i2c
     0000866D  A$i2c/i2c$462                      i2c
     0000866D  C$i2c.c$140$1_0$659                i2c
     00008670  A$i2c/i2c$463                      i2c
     00008672  A$i2c/i2c$464                      i2c
     00008674  A$i2c/i2c$465                      i2c
     00008677  A$i2c/i2c$466                      i2c
     00008679  A$i2c/i2c$469                      i2c
     00008679  C$i2c.c$142$2_0$660                i2c
     0000867D  A$i2c/i2c$473                      i2c
     0000867D  C$i2c.c$143$2_0$660                i2c
     00008680  A$i2c/i2c$474                      i2c
     00008682  A$i2c/i2c$475                      i2c
     00008684  A$i2c/i2c$476                      i2c
     00008687  A$i2c/i2c$477                      i2c
     00008689  A$i2c/i2c$478                      i2c
     0000868B  A$i2c/i2c$482                      i2c
     0000868B  C$i2c.c$148$1_0$659                i2c
     0000868F  A$i2c/i2c$486                      i2c
     0000868F  C$i2c.c$149$1_0$659                i2c
     00008692  A$i2c/i2c$487                      i2c
     00008693  A$i2c/i2c$488                      i2c
ASxxxx Linker V03.00 + NoICE + sdld,  page 20.
Hexadecimal  [32-Bits]

Area                                    Addr        Size        Decimal Bytes (Attributes)
--------------------------------        ----        ----        ------- ----- ------------
CODE                                00008306    000019D2 =        6610. bytes (REL,CON)

      Value  Global                              Global Defined In Module
      -----  --------------------------------   ------------------------
     00008695  A$i2c/i2c$489                      i2c
     00008698  A$i2c/i2c$490                      i2c
     0000869A  A$i2c/i2c$494                      i2c
     0000869A  C$i2c.c$152$1_0$659                i2c
     0000869B  A$i2c/i2c$495                      i2c
     0000869C  A$i2c/i2c$498                      i2c
     0000869C  C$i2c.c$154$1_0$659                i2c
     0000869F  A$i2c/i2c$499                      i2c
     000086A1  A$i2c/i2c$502                      i2c
     000086A1  C$i2c.c$156$2_0$663                i2c
     000086A4  A$i2c/i2c$503                      i2c
     000086A6  A$i2c/i2c$504                      i2c
     000086A7  A$i2c/i2c$508                      i2c
     000086A7  C$i2c.c$158$1_0$659                i2c
     000086AA  A$i2c/i2c$509                      i2c
     000086AC  A$i2c/i2c$510                      i2c
     000086AE  A$i2c/i2c$511                      i2c
     000086B1  A$i2c/i2c$512                      i2c
     000086B3  A$i2c/i2c$516                      i2c
     000086B3  C$i2c.c$161$1_0$659                i2c
     000086B4  A$i2c/i2c$517                      i2c
     000086B5  A$i2c/i2c$520                      i2c
     000086B5  C$i2c.c$162$1_0$659                i2c
     000086B8  A$i2c/i2c$523                      i2c
     000086B8  C$i2c.c$164$1_0$659                i2c
     000086BA  A$i2c/i2c$525                      i2c
     000086BC  A$i2c/i2c$526                      i2c
     000086BE  A$i2c/i2c$527                      i2c
     000086C0  A$i2c/i2c$531                      i2c
     000086C0  C$i2c.c$166$3_0$666                i2c
     000086C3  A$i2c/i2c$532                      i2c
     000086C5  A$i2c/i2c$533                      i2c
     000086C8  A$i2c/i2c$534                      i2c
     000086CA  A$i2c/i2c$538                      i2c
     000086CA  C$i2c.c$169$3_0$666                i2c
     000086CB  A$i2c/i2c$539                      i2c
     000086CD  A$i2c/i2c$540                      i2c
     000086CE  A$i2c/i2c$541                      i2c
     000086D1  A$i2c/i2c$542                      i2c
     000086D2  A$i2c/i2c$543                      i2c
     000086D5  A$i2c/i2c$546                      i2c
     000086D5  C$i2c.c$164$2_0$665                i2c
     000086D7  A$i2c/i2c$547                      i2c
     000086D9  A$i2c/i2c$551                      i2c
     000086D9  C$i2c.c$172$1_0$659                i2c
     000086DC  A$i2c/i2c$552                      i2c
     000086DE  A$i2c/i2c$553                      i2c
     000086DF  A$i2c/i2c$554                      i2c
     000086E0  A$i2c/i2c$555                      i2c
     000086E1  A$i2c/i2c$556                      i2c
     000086E4  A$i2c/i2c$557                      i2c
ASxxxx Linker V03.00 + NoICE + sdld,  page 21.
Hexadecimal  [32-Bits]

Area                                    Addr        Size        Decimal Bytes (Attributes)
--------------------------------        ----        ----        ------- ----- ------------
CODE                                00008306    000019D2 =        6610. bytes (REL,CON)

      Value  Global                              Global Defined In Module
      -----  --------------------------------   ------------------------
     000086E6  A$i2c/i2c$558                      i2c
     000086E9  A$i2c/i2c$559                      i2c
     000086EB  A$i2c/i2c$563                      i2c
     000086EB  C$i2c.c$175$1_0$659                i2c
     000086EC  A$i2c/i2c$564                      i2c
     000086ED  A$i2c/i2c$567                      i2c
     000086ED  C$i2c.c$177$1_0$659                i2c
     000086F1  A$i2c/i2c$571                      i2c
     000086F1  C$i2c.c$178$1_0$659                i2c
     000086F4  A$i2c/i2c$572                      i2c
     000086F6  A$i2c/i2c$573                      i2c
     000086F8  A$i2c/i2c$574                      i2c
     000086FB  A$i2c/i2c$575                      i2c
     000086FD  A$i2c/i2c$579                      i2c
     000086FD  C$i2c.c$182$1_0$659                i2c
     00008700  A$i2c/i2c$580                      i2c
     00008703  A$i2c/i2c$581                      i2c
     00008704  A$i2c/i2c$582                      i2c
     00008705  A$i2c/i2c$583                      i2c
     00008707  A$i2c/i2c$586                      i2c
     00008709  A$i2c/i2c$589                      i2c
     00008709  C$i2c.c$183$1_0$659                i2c
     00008709  XG$I2cWrite$0$0                    i2c
     0000870A  A$i2c/i2c$599                      i2c
     0000870A  C$i2c.c$185$1_0$671                i2c
     0000870A  C$i2c.c$187$1_0$671                i2c
     0000870A  G$I2C1_SPI2_IRQHandler$0$0         i2c
     0000870A  _I2C1_SPI2_IRQHandler              i2c
     0000870E  A$i2c/i2c$602                      i2c
     0000870E  C$i2c.c$188$1_0$671                i2c
     00008712  A$i2c/i2c$605                      i2c
     00008712  C$i2c.c$189$1_0$671                i2c
     00008713  A$i2c/i2c$606                      i2c
     00008716  A$i2c/i2c$611                      i2c
     00008716  C$i2c.c$190$1_0$671                i2c
     00008716  XG$I2C1_SPI2_IRQHandler$0$0        i2c
     00008717  A$i2c/i2c$621                      i2c
     00008717  C$i2c.c$192$1_0$673                i2c
     00008717  C$i2c.c$194$1_0$673                i2c
     00008717  G$I2cInterruptSysTick$0$0          i2c
     00008717  _I2cInterruptSysTick               i2c
     0000871A  A$i2c/i2c$622                      i2c
     0000871C  A$i2c/i2c$625                      i2c
     0000871C  C$i2c.c$196$2_0$674                i2c
     0000871F  A$i2c/i2c$626                      i2c
     00008720  A$i2c/i2c$627                      i2c
     00008723  A$i2c/i2c$633                      i2c
     00008723  C$i2c.c$198$1_0$673                i2c
     00008723  XG$I2cInterruptSysTick$0$0         i2c
     00008724  A$spi/spi$69                       spi
     00008724  C$spi.c$4$0_0$636                  spi
ASxxxx Linker V03.00 + NoICE + sdld,  page 22.
Hexadecimal  [32-Bits]

Area                                    Addr        Size        Decimal Bytes (Attributes)
--------------------------------        ----        ----        ------- ----- ------------
CODE                                00008306    000019D2 =        6610. bytes (REL,CON)

      Value  Global                              Global Defined In Module
      -----  --------------------------------   ------------------------
     00008724  C$spi.c$6$1_0$636                  spi
     00008724  G$SpiInit$0$0                      spi
     00008724  _SpiInit                           spi
     00008726  A$spi/spi$70                       spi
     00008728  A$spi/spi$71                       spi
     0000872A  A$spi/spi$72                       spi
     0000872C  A$spi/spi$73                       spi
     0000872F  A$spi/spi$74                       spi
     00008731  A$spi/spi$77                       spi
     00008731  C$spi.c$7$1_0$636                  spi
     00008733  A$spi/spi$78                       spi
     00008735  A$spi/spi$79                       spi
     00008737  A$spi/spi$80                       spi
     00008739  A$spi/spi$81                       spi
     0000873C  A$spi/spi$82                       spi
     0000873E  A$spi/spi$85                       spi
     0000873E  C$spi.c$8$1_0$636                  spi
     00008740  A$spi/spi$86                       spi
     00008742  A$spi/spi$87                       spi
     00008744  A$spi/spi$88                       spi
     00008746  A$spi/spi$89                       spi
     00008749  A$spi/spi$90                       spi
     0000874B  A$spi/spi$93                       spi
     0000874B  C$spi.c$10$1_0$636                 spi
     0000874D  A$spi/spi$94                       spi
     0000874F  A$spi/spi$95                       spi
     00008752  A$spi/spi$96                       spi
     00008753  A$spi/spi$99                       spi
     00008753  C$spi.c$12$1_0$636                 spi
     00008755  A$spi/spi$100                      spi
     00008757  A$spi/spi$101                      spi
     00008759  A$spi/spi$102                      spi
     0000875B  A$spi/spi$103                      spi
     0000875D  A$spi/spi$104                      spi
     0000875F  A$spi/spi$105                      spi
     00008761  A$spi/spi$106                      spi
     00008763  A$spi/spi$107                      spi
     00008765  A$spi/spi$108                      spi
     00008767  A$spi/spi$109                      spi
     0000876A  A$spi/spi$110                      spi
     0000876C  A$spi/spi$113                      spi
     0000876C  C$spi.c$16$1_0$636                 spi
     0000876E  A$spi/spi$114                      spi
     00008770  A$spi/spi$115                      spi
     00008772  A$spi/spi$116                      spi
     00008775  A$spi/spi$117                      spi
     00008777  A$spi/spi$122                      spi
     00008777  C$spi.c$17$1_0$636                 spi
     00008777  XG$SpiInit$0$0                     spi
     00008778  A$spi/spi$133                      spi
     00008778  C$spi.c$19$1_0$638                 spi
ASxxxx Linker V03.00 + NoICE + sdld,  page 23.
Hexadecimal  [32-Bits]

Area                                    Addr        Size        Decimal Bytes (Attributes)
--------------------------------        ----        ----        ------- ----- ------------
CODE                                00008306    000019D2 =        6610. bytes (REL,CON)

      Value  Global                              Global Defined In Module
      -----  --------------------------------   ------------------------
     00008778  C$spi.c$23$1_0$638                 spi
     00008778  G$SpiWriteRead$0$0                 spi
     00008778  _SpiWriteRead                      spi
     0000877A  A$spi/spi$134                      spi
     0000877C  A$spi/spi$135                      spi
     0000877E  A$spi/spi$136                      spi
     00008781  A$spi/spi$137                      spi
     00008783  A$spi/spi$138                      spi
     00008784  A$spi/spi$139                      spi
     00008786  A$spi/spi$142                      spi
     00008786  C$spi.c$25$1_0$638                 spi
     00008788  A$spi/spi$143                      spi
     00008789  A$spi/spi$144                      spi
     0000878B  A$spi/spi$145                      spi
     0000878D  A$spi/spi$146                      spi
     00008790  A$spi/spi$147                      spi
     00008792  A$spi/spi$151                      spi
     00008792  C$spi.c$26$1_0$638                 spi
     00008794  A$spi/spi$152                      spi
     00008796  A$spi/spi$153                      spi
     00008798  A$spi/spi$154                      spi
     0000879B  A$spi/spi$155                      spi
     0000879D  A$spi/spi$156                      spi
     0000879E  A$spi/spi$157                      spi
     000087A0  A$spi/spi$160                      spi
     000087A0  C$spi.c$28$1_0$638                 spi
     000087A2  A$spi/spi$161                      spi
     000087A4  A$spi/spi$162                      spi
     000087A7  A$spi/spi$163                      spi
     000087A8  A$spi/spi$168                      spi
     000087A8  C$spi.c$42$1_0$638                 spi
     000087A8  XG$SpiWriteRead$0$0                spi
     000087A9  A$spi/spi$176                      spi
     000087A9  C$spi.c$44$1_0$641                 spi
     000087A9  G$SpiReadBuffer$0$0                spi
     000087A9  _SpiReadBuffer                     spi
     000087AA  A$spi/spi$179                      spi
     000087AC  A$spi/spi$181                      spi
     000087AE  A$spi/spi$182                      spi
     000087B0  A$spi/spi$183                      spi
     000087B2  A$spi/spi$186                      spi
     000087B2  C$spi.c$49$3_0$642                 spi
     000087B3  A$spi/spi$187                      spi
     000087B5  A$spi/spi$188                      spi
     000087B6  A$spi/spi$189                      spi
     000087B9  A$spi/spi$190                      spi
     000087BA  A$spi/spi$191                      spi
     000087BC  A$spi/spi$192                      spi
     000087BF  A$spi/spi$193                      spi
     000087C1  A$spi/spi$194                      spi
     000087C2  A$spi/spi$195                      spi
ASxxxx Linker V03.00 + NoICE + sdld,  page 24.
Hexadecimal  [32-Bits]

Area                                    Addr        Size        Decimal Bytes (Attributes)
--------------------------------        ----        ----        ------- ----- ------------
CODE                                00008306    000019D2 =        6610. bytes (REL,CON)

      Value  Global                              Global Defined In Module
      -----  --------------------------------   ------------------------
     000087C3  A$spi/spi$198                      spi
     000087C3  C$spi.c$47$2_0$641                 spi
     000087C5  A$spi/spi$199                      spi
     000087C7  A$spi/spi$203                      spi
     000087C8  A$spi/spi$206                      spi
     000087C8  C$spi.c$51$2_0$641                 spi
     000087C8  XG$SpiReadBuffer$0$0               spi
     000087C9  A$spi/spi$214                      spi
     000087C9  C$spi.c$53$2_0$645                 spi
     000087C9  G$SpiWriteBuffer$0$0               spi
     000087C9  _SpiWriteBuffer                    spi
     000087CA  A$spi/spi$217                      spi
     000087CC  A$spi/spi$219                      spi
     000087CE  A$spi/spi$220                      spi
     000087D0  A$spi/spi$221                      spi
     000087D2  A$spi/spi$224                      spi
     000087D2  C$spi.c$58$3_0$646                 spi
     000087D3  A$spi/spi$225                      spi
     000087D5  A$spi/spi$226                      spi
     000087D6  A$spi/spi$227                      spi
     000087D9  A$spi/spi$228                      spi
     000087DA  A$spi/spi$229                      spi
     000087DB  A$spi/spi$230                      spi
     000087DE  A$spi/spi$231                      spi
     000087DF  A$spi/spi$234                      spi
     000087DF  C$spi.c$56$2_0$645                 spi
     000087E1  A$spi/spi$235                      spi
     000087E3  A$spi/spi$239                      spi
     000087E4  A$spi/spi$242                      spi
     000087E4  C$spi.c$60$2_0$645                 spi
     000087E4  XG$SpiWriteBuffer$0$0              spi
     000087E5  A$spi/spi$250                      spi
     000087E5  C$spi.c$62$2_0$649                 spi
     000087E5  G$SpiWriteReadBuffer$0$0           spi
     000087E5  _SpiWriteReadBuffer                spi
     000087E6  A$spi/spi$253                      spi
     000087E8  A$spi/spi$255                      spi
     000087EA  A$spi/spi$256                      spi
     000087EC  A$spi/spi$257                      spi
     000087EE  A$spi/spi$260                      spi
     000087EE  C$spi.c$67$3_0$650                 spi
     000087EF  A$spi/spi$261                      spi
     000087F1  A$spi/spi$262                      spi
     000087F2  A$spi/spi$263                      spi
     000087F5  A$spi/spi$264                      spi
     000087F6  A$spi/spi$265                      spi
     000087F7  A$spi/spi$266                      spi
     000087F8  A$spi/spi$267                      spi
     000087FB  A$spi/spi$268                      spi
     000087FD  A$spi/spi$269                      spi
     000087FE  A$spi/spi$270                      spi
ASxxxx Linker V03.00 + NoICE + sdld,  page 25.
Hexadecimal  [32-Bits]

Area                                    Addr        Size        Decimal Bytes (Attributes)
--------------------------------        ----        ----        ------- ----- ------------
CODE                                00008306    000019D2 =        6610. bytes (REL,CON)

      Value  Global                              Global Defined In Module
      -----  --------------------------------   ------------------------
     000087FF  A$spi/spi$273                      spi
     000087FF  C$spi.c$65$2_0$649                 spi
     00008801  A$spi/spi$274                      spi
     00008803  A$spi/spi$278                      spi
     00008804  A$spi/spi$281                      spi
     00008804  C$spi.c$69$2_0$649                 spi
     00008804  XG$SpiWriteReadBuffer$0$0          spi
     00008805  A$adc/adc$69                       adc
     00008805  C$adc.c$4$0_0$633                  adc
     00008805  C$adc.c$6$1_0$633                  adc
     00008805  G$AdcInit$0$0                      adc
     00008805  _AdcInit                           adc
     00008807  A$adc/adc$70                       adc
     00008809  A$adc/adc$71                       adc
     0000880C  A$adc/adc$72                       adc
     0000880D  A$adc/adc$75                       adc
     0000880D  C$adc.c$8$1_0$633                  adc
     0000880F  A$adc/adc$76                       adc
     00008811  A$adc/adc$77                       adc
     00008813  A$adc/adc$78                       adc
     00008815  A$adc/adc$79                       adc
     00008817  A$adc/adc$80                       adc
     0000881A  A$adc/adc$81                       adc
     0000881C  A$adc/adc$84                       adc
     0000881C  C$adc.c$9$1_0$633                  adc
     0000881E  A$adc/adc$85                       adc
     00008820  A$adc/adc$86                       adc
     00008822  A$adc/adc$87                       adc
     00008824  A$adc/adc$88                       adc
     00008827  A$adc/adc$89                       adc
     00008829  A$adc/adc$94                       adc
     00008829  C$adc.c$10$1_0$633                 adc
     00008829  XG$AdcInit$0$0                     adc
     0000882A  A$adc/adc$102                      adc
     0000882A  C$adc.c$12$1_0$635                 adc
     0000882A  G$AdcGetVoltage$0$0                adc
     0000882A  _AdcGetVoltage                     adc
     0000882B  A$adc/adc$105                      adc
     0000882B  C$adc.c$16$1_0$635                 adc
     0000882D  A$adc/adc$106                      adc
     0000882F  A$adc/adc$107                      adc
     00008831  A$adc/adc$108                      adc
     00008834  A$adc/adc$109                      adc
     00008836  A$adc/adc$112                      adc
     00008836  C$adc.c$17$1_0$635                 adc
     00008838  A$adc/adc$113                      adc
     0000883B  A$adc/adc$114                      adc
     0000883C  A$adc/adc$117                      adc
     0000883C  C$adc.c$18$1_0$635                 adc
     0000883E  A$adc/adc$118                      adc
     00008840  A$adc/adc$119                      adc
ASxxxx Linker V03.00 + NoICE + sdld,  page 26.
Hexadecimal  [32-Bits]

Area                                    Addr        Size        Decimal Bytes (Attributes)
--------------------------------        ----        ----        ------- ----- ------------
CODE                                00008306    000019D2 =        6610. bytes (REL,CON)

      Value  Global                              Global Defined In Module
      -----  --------------------------------   ------------------------
     00008843  A$adc/adc$120                      adc
     00008844  A$adc/adc$123                      adc
     00008844  C$adc.c$19$1_0$635                 adc
     00008846  A$adc/adc$124                      adc
     00008848  A$adc/adc$125                      adc
     0000884A  A$adc/adc$126                      adc
     0000884C  A$adc/adc$127                      adc
     0000884E  A$adc/adc$128                      adc
     00008851  A$adc/adc$129                      adc
     00008853  A$adc/adc$132                      adc
     00008853  C$adc.c$20$1_0$635                 adc
     00008855  A$adc/adc$133                      adc
     00008857  A$adc/adc$134                      adc
     0000885A  A$adc/adc$135                      adc
     0000885B  A$adc/adc$139                      adc
     0000885B  C$adc.c$21$1_0$635                 adc
     0000885D  A$adc/adc$140                      adc
     0000885F  A$adc/adc$141                      adc
     00008861  A$adc/adc$142                      adc
     00008864  A$adc/adc$143                      adc
     00008866  A$adc/adc$144                      adc
     00008867  A$adc/adc$145                      adc
     00008869  A$adc/adc$148                      adc
     00008869  C$adc.c$24$1_0$635                 adc
     0000886B  A$adc/adc$149                      adc
     0000886D  A$adc/adc$150                      adc
     00008870  A$adc/adc$151                      adc
     00008872  A$adc/adc$152                      adc
     00008874  A$adc/adc$155                      adc
     00008874  C$adc.c$25$1_0$635                 adc
     00008876  A$adc/adc$156                      adc
     00008878  A$adc/adc$157                      adc
     0000887A  A$adc/adc$158                      adc
     0000887C  A$adc/adc$159                      adc
     0000887E  A$adc/adc$160                      adc
     00008881  A$adc/adc$161                      adc
     00008883  A$adc/adc$164                      adc
     00008883  C$adc.c$26$1_0$635                 adc
     00008885  A$adc/adc$165                      adc
     00008888  A$adc/adc$166                      adc
     00008889  A$adc/adc$169                      adc
     00008889  C$adc.c$27$1_0$635                 adc
     0000888B  A$adc/adc$170                      adc
     0000888D  A$adc/adc$171                      adc
     0000888F  A$adc/adc$172                      adc
     00008892  A$adc/adc$173                      adc
     00008894  A$adc/adc$176                      adc
     00008894  C$adc.c$29$1_0$635                 adc
     00008896  A$adc/adc$177                      adc
     00008897  A$adc/adc$178                      adc
     00008898  A$adc/adc$179                      adc
ASxxxx Linker V03.00 + NoICE + sdld,  page 27.
Hexadecimal  [32-Bits]

Area                                    Addr        Size        Decimal Bytes (Attributes)
--------------------------------        ----        ----        ------- ----- ------------
CODE                                00008306    000019D2 =        6610. bytes (REL,CON)

      Value  Global                              Global Defined In Module
      -----  --------------------------------   ------------------------
     00008899  A$adc/adc$180                      adc
     0000889C  A$adc/adc$181                      adc
     0000889D  A$adc/adc$182                      adc
     0000889F  A$adc/adc$183                      adc
     000088A1  A$adc/adc$184                      adc
     000088A2  A$adc/adc$185                      adc
     000088A4  A$adc/adc$186                      adc
     000088A6  A$adc/adc$187                      adc
     000088A8  A$adc/adc$188                      adc
     000088AA  A$adc/adc$189                      adc
     000088AC  A$adc/adc$190                      adc
     000088AF  A$adc/adc$191                      adc
     000088B1  A$adc/adc$194                      adc
     000088B3  A$adc/adc$197                      adc
     000088B3  C$adc.c$30$1_0$635                 adc
     000088B3  XG$AdcGetVoltage$0$0               adc
     000088B4  A$nvdatadata$66                    nvdata
     000088B4  C$nvdata.c$5$0_0$637               nvdata
     000088B4  C$nvdata.c$7$1_0$637               nvdata
     000088B4  G$NvDataInit$0$0                   nvdata
     000088B4  _NvDataInit                        nvdata
     000088B7  A$nvdatadata$69                    nvdata
     000088B7  C$nvdata.c$9$1_0$637               nvdata
     000088B8  A$nvdatadata$70                    nvdata
     000088BA  A$nvdatadata$71                    nvdata
     000088BD  A$nvdatadata$72                    nvdata
     000088BE  A$nvdatadata$73                    nvdata
     000088C0  A$nvdatadata$77                    nvdata
     000088C0  C$nvdata.c$11$2_0$638              nvdata
     000088C2  A$nvdatadata$78                    nvdata
     000088C4  A$nvdatadata$79                    nvdata
     000088C7  A$nvdatadata$80                    nvdata
     000088C8  A$nvdatadata$83                    nvdata
     000088C8  C$nvdata.c$13$2_0$638              nvdata
     000088CB  A$nvdatadata$86                    nvdata
     000088CB  C$nvdata.c$14$2_0$638              nvdata
     000088CE  A$nvdatadata$89                    nvdata
     000088CE  C$nvdata.c$16$2_0$638              nvdata
     000088D2  A$nvdatadata$92                    nvdata
     000088D2  C$nvdata.c$17$2_0$638              nvdata
     000088D6  A$nvdatadata$95                    nvdata
     000088D6  C$nvdata.c$18$2_0$638              nvdata
     000088DA  A$nvdatadata$98                    nvdata
     000088DA  C$nvdata.c$19$2_0$638              nvdata
     000088DE  A$nvdatadata$101                   nvdata
     000088DE  C$nvdata.c$20$2_0$638              nvdata
     000088E2  A$nvdatadata$104                   nvdata
     000088E2  C$nvdata.c$21$2_0$638              nvdata
     000088E6  A$nvdatadata$107                   nvdata
     000088E6  C$nvdata.c$22$2_0$638              nvdata
     000088E9  A$nvdatadata$110                   nvdata
ASxxxx Linker V03.00 + NoICE + sdld,  page 28.
Hexadecimal  [32-Bits]

Area                                    Addr        Size        Decimal Bytes (Attributes)
--------------------------------        ----        ----        ------- ----- ------------
CODE                                00008306    000019D2 =        6610. bytes (REL,CON)

      Value  Global                              Global Defined In Module
      -----  --------------------------------   ------------------------
     000088E9  C$nvdata.c$23$2_0$638              nvdata
     000088EC  A$nvdatadata$116                   nvdata
     000088EC  C$nvdata.c$25$1_0$637              nvdata
     000088EC  XG$NvDataInit$0$0                  nvdata
     000088ED  A$nvdatadata$126                   nvdata
     000088ED  C$nvdata.c$27$1_0$640              nvdata
     000088ED  C$nvdata.c$29$1_0$640              nvdata
     000088ED  G$NvDataLock$0$0                   nvdata
     000088ED  _NvDataLock                        nvdata
     000088EF  A$nvdatadata$127                   nvdata
     000088F2  A$nvdatadata$128                   nvdata
     000088F3  A$nvdatadata$133                   nvdata
     000088F3  C$nvdata.c$30$1_0$640              nvdata
     000088F3  XG$NvDataLock$0$0                  nvdata
     000088F4  A$nvdatadata$143                   nvdata
     000088F4  C$nvdata.c$32$1_0$642              nvdata
     000088F4  C$nvdata.c$34$1_0$642              nvdata
     000088F4  G$NvDataUnlock$0$0                 nvdata
     000088F4  _NvDataUnlock                      nvdata
     000088F6  A$nvdatadata$144                   nvdata
     000088F9  A$nvdatadata$145                   nvdata
     000088FA  A$nvdatadata$150                   nvdata
     000088FA  C$nvdata.c$35$1_0$642              nvdata
     000088FA  XG$NvDataUnlock$0$0                nvdata
     000088FB  A$nvdatadata$160                   nvdata
     000088FB  C$nvdata.c$37$1_0$645              nvdata
     000088FB  G$NvDataErase$0$0                  nvdata
     000088FB  _NvDataErase                       nvdata
     000088FC  A$nvdatadata$164                   nvdata
     000088FC  C$nvdata.c$44$3_0$646              nvdata
     000088FD  A$nvdatadata$165                   nvdata
     000088FE  A$nvdatadata$166                   nvdata
     00008902  A$nvdatadata$169                   nvdata
     00008902  C$nvdata.c$42$2_0$645              nvdata
     00008903  A$nvdatadata$170                   nvdata
     00008905  A$nvdatadata$171                   nvdata
     00008907  A$nvdatadata$176                   nvdata
     00008907  C$nvdata.c$46$2_0$645              nvdata
     00008907  XG$NvDataErase$0$0                 nvdata
     00008908  A$nvdatadata$184                   nvdata
     00008908  C$nvdata.c$48$2_0$648              nvdata
     00008908  G$NvDataUpdateChecksum$0$0         nvdata
     00008908  _NvDataUpdateChecksum              nvdata
     00008909  A$nvdatadata$187                   nvdata
     00008909  C$nvdata.c$50$2_0$648              nvdata
     0000890B  A$nvdatadata$190                   nvdata
     0000890B  C$nvdata.c$54$1_0$648              nvdata
     0000890C  A$nvdatadata$194                   nvdata
     0000890C  C$nvdata.c$56$3_0$650              nvdata
     0000890D  A$nvdatadata$195                   nvdata
     0000890E  A$nvdatadata$196                   nvdata
ASxxxx Linker V03.00 + NoICE + sdld,  page 29.
Hexadecimal  [32-Bits]

Area                                    Addr        Size        Decimal Bytes (Attributes)
--------------------------------        ----        ----        ------- ----- ------------
CODE                                00008306    000019D2 =        6610. bytes (REL,CON)

      Value  Global                              Global Defined In Module
      -----  --------------------------------   ------------------------
     00008911  A$nvdatadata$197                   nvdata
     00008912  A$nvdatadata$198                   nvdata
     00008913  A$nvdatadata$199                   nvdata
     00008915  A$nvdatadata$200                   nvdata
     00008916  A$nvdatadata$201                   nvdata
     00008919  A$nvdatadata$204                   nvdata
     00008919  C$nvdata.c$54$2_0$649              nvdata
     0000891A  A$nvdatadata$205                   nvdata
     0000891C  A$nvdatadata$206                   nvdata
     0000891E  A$nvdatadata$209                   nvdata
     0000891E  C$nvdata.c$58$1_0$648              nvdata
     00008920  A$nvdatadata$210                   nvdata
     00008921  A$nvdatadata$211                   nvdata
     00008924  A$nvdatadata$214                   nvdata
     00008925  A$nvdatadata$217                   nvdata
     00008925  C$nvdata.c$59$1_0$648              nvdata
     00008925  XG$NvDataUpdateChecksum$0$0        nvdata
     00008926  A$nvdatadata$225                   nvdata
     00008926  C$nvdata.c$61$1_0$652              nvdata
     00008926  G$NvDataCheckChecksum$0$0          nvdata
     00008926  _NvDataCheckChecksum               nvdata
     00008927  A$nvdatadata$228                   nvdata
     00008927  C$nvdata.c$63$2_0$652              nvdata
     00008929  A$nvdatadata$231                   nvdata
     00008929  C$nvdata.c$67$1_0$652              nvdata
     0000892A  A$nvdatadata$235                   nvdata
     0000892A  C$nvdata.c$69$3_0$654              nvdata
     0000892B  A$nvdatadata$236                   nvdata
     0000892C  A$nvdatadata$237                   nvdata
     0000892F  A$nvdatadata$238                   nvdata
     00008930  A$nvdatadata$239                   nvdata
     00008931  A$nvdatadata$240                   nvdata
     00008933  A$nvdatadata$241                   nvdata
     00008934  A$nvdatadata$242                   nvdata
     00008937  A$nvdatadata$245                   nvdata
     00008937  C$nvdata.c$67$2_0$653              nvdata
     00008938  A$nvdatadata$246                   nvdata
     0000893A  A$nvdatadata$247                   nvdata
     0000893C  A$nvdatadata$250                   nvdata
     0000893C  C$nvdata.c$71$1_0$652              nvdata
     0000893E  A$nvdatadata$251                   nvdata
     0000893F  A$nvdatadata$252                   nvdata
     00008941  A$nvdatadata$253                   nvdata
     00008943  A$nvdatadata$256                   nvdata
     00008944  A$nvdatadata$257                   nvdata
     00008945  A$nvdatadata$259                   nvdata
     00008946  A$nvdatadata$262                   nvdata
     00008948  A$nvdatadata$265                   nvdata
     00008948  C$nvdata.c$72$1_0$652              nvdata
     00008948  XG$NvDataCheckChecksum$0$0         nvdata
     00008949  A$si44324432$85                    si4432
ASxxxx Linker V03.00 + NoICE + sdld,  page 30.
Hexadecimal  [32-Bits]

Area                                    Addr        Size        Decimal Bytes (Attributes)
--------------------------------        ----        ----        ------- ----- ------------
CODE                                00008306    000019D2 =        6610. bytes (REL,CON)

      Value  Global                              Global Defined In Module
      -----  --------------------------------   ------------------------
     00008949  C$si4432.c$156$0_0$667             si4432
     00008949  C$si4432.c$161$1_0$667             si4432
     00008949  G$Si4432Init$0$0                   si4432
     00008949  _Si4432Init                        si4432
     0000894B  A$si44324432$86                    si4432
     0000894D  A$si44324432$87                    si4432
     00008950  A$si44324432$88                    si4432
     00008951  A$si44324432$91                    si4432
     00008951  C$si4432.c$162$1_0$667             si4432
     00008953  A$si44324432$92                    si4432
     00008955  A$si44324432$93                    si4432
     00008957  A$si44324432$94                    si4432
     00008959  A$si44324432$95                    si4432
     0000895C  A$si44324432$96                    si4432
     0000895E  A$si44324432$99                    si4432
     0000895E  C$si4432.c$163$1_0$667             si4432
     00008960  A$si44324432$100                   si4432
     00008962  A$si44324432$101                   si4432
     00008964  A$si44324432$102                   si4432
     00008966  A$si44324432$103                   si4432
     00008969  A$si44324432$104                   si4432
     0000896B  A$si44324432$107                   si4432
     0000896B  C$si4432.c$164$1_0$667             si4432
     0000896D  A$si44324432$108                   si4432
     0000896F  A$si44324432$109                   si4432
     00008971  A$si44324432$110                   si4432
     00008973  A$si44324432$111                   si4432
     00008976  A$si44324432$112                   si4432
     00008978  A$si44324432$115                   si4432
     00008978  C$si4432.c$166$1_0$667             si4432
     0000897A  A$si44324432$116                   si4432
     0000897C  A$si44324432$117                   si4432
     0000897F  A$si44324432$118                   si4432
     00008980  A$si44324432$121                   si4432
     00008980  C$si4432.c$167$1_0$667             si4432
     00008983  A$si44324432$122                   si4432
     00008985  A$si44324432$123                   si4432
     00008988  A$si44324432$126                   si4432
     00008988  C$si4432.c$168$1_0$667             si4432
     0000898A  A$si44324432$127                   si4432
     0000898C  A$si44324432$128                   si4432
     0000898F  A$si44324432$129                   si4432
     00008990  A$si44324432$132                   si4432
     00008990  C$si4432.c$170$1_0$667             si4432
     00008992  A$si44324432$133                   si4432
     00008995  A$si44324432$134                   si4432
     00008997  A$si44324432$137                   si4432
     00008997  C$si4432.c$171$1_0$667             si4432
     00008998  A$si44324432$138                   si4432
     0000899A  A$si44324432$139                   si4432
     0000899D  A$si44324432$140                   si4432
ASxxxx Linker V03.00 + NoICE + sdld,  page 31.
Hexadecimal  [32-Bits]

Area                                    Addr        Size        Decimal Bytes (Attributes)
--------------------------------        ----        ----        ------- ----- ------------
CODE                                00008306    000019D2 =        6610. bytes (REL,CON)

      Value  Global                              Global Defined In Module
      -----  --------------------------------   ------------------------
     0000899F  A$si44324432$141                   si4432
     000089A0  A$si44324432$142                   si4432
     000089A1  A$si44324432$145                   si4432
     000089A1  C$si4432.c$172$1_0$667             si4432
     000089A3  A$si44324432$146                   si4432
     000089A5  A$si44324432$147                   si4432
     000089A6  A$si44324432$148                   si4432
     000089A8  A$si44324432$149                   si4432
     000089AA  A$si44324432$153                   si4432
     000089AA  C$si4432.c$174$2_0$668             si4432
     000089AB  A$si44324432$154                   si4432
     000089AE  A$si44324432$158                   si4432
     000089AE  C$si4432.c$177$1_0$667             si4432
     000089B0  A$si44324432$159                   si4432
     000089B2  A$si44324432$160                   si4432
     000089B5  A$si44324432$161                   si4432
     000089B6  A$si44324432$164                   si4432
     000089B6  C$si4432.c$178$1_0$667             si4432
     000089B8  A$si44324432$165                   si4432
     000089BA  A$si44324432$166                   si4432
     000089BD  A$si44324432$167                   si4432
     000089BE  A$si44324432$170                   si4432
     000089BE  C$si4432.c$179$1_0$667             si4432
     000089C0  A$si44324432$171                   si4432
     000089C2  A$si44324432$172                   si4432
     000089C5  A$si44324432$173                   si4432
     000089C6  A$si44324432$176                   si4432
     000089C6  C$si4432.c$181$1_0$667             si4432
     000089C8  A$si44324432$177                   si4432
     000089CA  A$si44324432$178                   si4432
     000089CD  A$si44324432$179                   si4432
     000089CE  A$si44324432$182                   si4432
     000089CE  C$si4432.c$182$1_0$667             si4432
     000089D0  A$si44324432$183                   si4432
     000089D2  A$si44324432$184                   si4432
     000089D5  A$si44324432$185                   si4432
     000089D6  A$si44324432$188                   si4432
     000089D6  C$si4432.c$183$1_0$667             si4432
     000089D8  A$si44324432$189                   si4432
     000089DA  A$si44324432$190                   si4432
     000089DD  A$si44324432$191                   si4432
     000089DE  A$si44324432$194                   si4432
     000089DE  C$si4432.c$184$1_0$667             si4432
     000089E0  A$si44324432$195                   si4432
     000089E2  A$si44324432$196                   si4432
     000089E5  A$si44324432$197                   si4432
     000089E6  A$si44324432$200                   si4432
     000089E6  C$si4432.c$185$1_0$667             si4432
     000089E8  A$si44324432$201                   si4432
     000089EA  A$si44324432$202                   si4432
     000089ED  A$si44324432$203                   si4432
ASxxxx Linker V03.00 + NoICE + sdld,  page 32.
Hexadecimal  [32-Bits]

Area                                    Addr        Size        Decimal Bytes (Attributes)
--------------------------------        ----        ----        ------- ----- ------------
CODE                                00008306    000019D2 =        6610. bytes (REL,CON)

      Value  Global                              Global Defined In Module
      -----  --------------------------------   ------------------------
     000089EE  A$si44324432$206                   si4432
     000089EE  C$si4432.c$187$1_0$667             si4432
     000089F0  A$si44324432$207                   si4432
     000089F2  A$si44324432$208                   si4432
     000089F4  A$si44324432$209                   si4432
     000089F6  A$si44324432$210                   si4432
     000089F9  A$si44324432$211                   si4432
     000089FB  A$si44324432$214                   si4432
     000089FB  C$si4432.c$188$1_0$667             si4432
     000089FD  A$si44324432$215                   si4432
     000089FF  A$si44324432$216                   si4432
     00008A01  A$si44324432$217                   si4432
     00008A03  A$si44324432$218                   si4432
     00008A06  A$si44324432$219                   si4432
     00008A08  A$si44324432$222                   si4432
     00008A08  C$si4432.c$189$1_0$667             si4432
     00008A0A  A$si44324432$223                   si4432
     00008A0C  A$si44324432$224                   si4432
     00008A0E  A$si44324432$225                   si4432
     00008A10  A$si44324432$226                   si4432
     00008A13  A$si44324432$227                   si4432
     00008A15  A$si44324432$230                   si4432
     00008A15  C$si4432.c$191$1_0$667             si4432
     00008A18  A$si44324432$231                   si4432
     00008A19  A$si44324432$232                   si4432
     00008A1B  A$si44324432$233                   si4432
     00008A1E  A$si44324432$234                   si4432
     00008A1F  A$si44324432$237                   si4432
     00008A1F  C$si4432.c$203$1_0$667             si4432
     00008A21  A$si44324432$238                   si4432
     00008A24  A$si44324432$239                   si4432
     00008A25  A$si44324432$242                   si4432
     00008A25  C$si4432.c$205$1_0$667             si4432
     00008A28  A$si44324432$243                   si4432
     00008A29  A$si44324432$244                   si4432
     00008A2B  A$si44324432$245                   si4432
     00008A2E  A$si44324432$246                   si4432
     00008A2F  A$si44324432$249                   si4432
     00008A2F  C$si4432.c$219$1_0$667             si4432
     00008A31  A$si44324432$250                   si4432
     00008A34  A$si44324432$251                   si4432
     00008A35  A$si44324432$254                   si4432
     00008A35  C$si4432.c$221$1_0$667             si4432
     00008A38  A$si44324432$257                   si4432
     00008A38  C$si4432.c$222$1_0$667             si4432
     00008A3B  A$si44324432$260                   si4432
     00008A3B  C$si4432.c$224$1_0$667             si4432
     00008A3E  A$si44324432$261                   si4432
     00008A3F  A$si44324432$262                   si4432
     00008A42  A$si44324432$263                   si4432
     00008A43  A$si44324432$266                   si4432
ASxxxx Linker V03.00 + NoICE + sdld,  page 33.
Hexadecimal  [32-Bits]

Area                                    Addr        Size        Decimal Bytes (Attributes)
--------------------------------        ----        ----        ------- ----- ------------
CODE                                00008306    000019D2 =        6610. bytes (REL,CON)

      Value  Global                              Global Defined In Module
      -----  --------------------------------   ------------------------
     00008A43  C$si4432.c$227$1_0$667             si4432
     00008A45  A$si44324432$267                   si4432
     00008A47  A$si44324432$268                   si4432
     00008A4A  A$si44324432$269                   si4432
     00008A4B  A$si44324432$272                   si4432
     00008A4B  C$si4432.c$231$1_0$667             si4432
     00008A4D  A$si44324432$273                   si4432
     00008A4F  A$si44324432$274                   si4432
     00008A52  A$si44324432$275                   si4432
     00008A53  A$si44324432$278                   si4432
     00008A53  C$si4432.c$232$1_0$667             si4432
     00008A55  A$si44324432$284                   si4432
     00008A55  C$si4432.c$233$1_0$667             si4432
     00008A55  XG$Si4432Init$0$0                  si4432
     00008A56  A$si44324432$292                   si4432
     00008A56  C$si4432.c$238$1_0$673             si4432
     00008A56  G$Si4432Interrupt$0$0              si4432
     00008A56  _Si4432Interrupt                   si4432
     00008A58  A$si44324432$295                   si4432
     00008A58  C$si4432.c$242$1_0$673             si4432
     00008A59  A$si44324432$296                   si4432
     00008A5A  A$si44324432$297                   si4432
     00008A5B  A$si44324432$298                   si4432
     00008A5E  A$si44324432$299                   si4432
     00008A5F  A$si44324432$302                   si4432
     00008A5F  C$si4432.c$244$1_0$673             si4432
     00008A60  A$si44324432$303                   si4432
     00008A63  A$si44324432$304                   si4432
     00008A64  A$si44324432$305                   si4432
     00008A66  A$si44324432$306                   si4432
     00008A68  A$si44324432$309                   si4432
     00008A68  C$si4432.c$246$2_0$674             si4432
     00008A69  A$si44324432$310                   si4432
     00008A6B  A$si44324432$311                   si4432
     00008A6D  A$si44324432$312                   si4432
     00008A70  A$si44324432$313                   si4432
     00008A71  A$si44324432$314                   si4432
     00008A72  A$si44324432$317                   si4432
     00008A72  C$si4432.c$247$2_0$674             si4432
     00008A73  A$si44324432$318                   si4432
     00008A76  A$si44324432$319                   si4432
     00008A77  A$si44324432$323                   si4432
     00008A77  C$si4432.c$250$1_0$673             si4432
     00008A78  A$si44324432$324                   si4432
     00008A7A  A$si44324432$325                   si4432
     00008A7C  A$si44324432$328                   si4432
     00008A7C  C$si4432.c$252$2_0$675             si4432
     00008A7F  A$si44324432$332                   si4432
     00008A7F  C$si4432.c$255$1_0$673             si4432
     00008A80  A$si44324432$333                   si4432
     00008A83  A$si44324432$334                   si4432
ASxxxx Linker V03.00 + NoICE + sdld,  page 34.
Hexadecimal  [32-Bits]

Area                                    Addr        Size        Decimal Bytes (Attributes)
--------------------------------        ----        ----        ------- ----- ------------
CODE                                00008306    000019D2 =        6610. bytes (REL,CON)

      Value  Global                              Global Defined In Module
      -----  --------------------------------   ------------------------
     00008A84  A$si44324432$335                   si4432
     00008A85  A$si44324432$336                   si4432
     00008A87  A$si44324432$339                   si4432
     00008A87  C$si4432.c$257$2_0$676             si4432
     00008A88  A$si44324432$340                   si4432
     00008A8A  A$si44324432$341                   si4432
     00008A8C  A$si44324432$342                   si4432
     00008A8F  A$si44324432$343                   si4432
     00008A90  A$si44324432$344                   si4432
     00008A91  A$si44324432$348                   si4432
     00008A91  C$si4432.c$260$1_0$673             si4432
     00008A92  A$si44324432$349                   si4432
     00008A94  A$si44324432$350                   si4432
     00008A96  A$si44324432$353                   si4432
     00008A96  C$si4432.c$262$2_0$677             si4432
     00008A97  A$si44324432$354                   si4432
     00008A99  A$si44324432$355                   si4432
     00008A9B  A$si44324432$356                   si4432
     00008A9E  A$si44324432$357                   si4432
     00008A9F  A$si44324432$358                   si4432
     00008AA0  A$si44324432$362                   si4432
     00008AA0  C$si4432.c$265$1_0$673             si4432
     00008AA1  A$si44324432$363                   si4432
     00008AA3  A$si44324432$366                   si4432
     00008AA3  C$si4432.c$267$2_0$678             si4432
     00008AA6  A$si44324432$370                   si4432
     00008AA8  A$si44324432$373                   si4432
     00008AA8  C$si4432.c$269$1_0$673             si4432
     00008AA8  XG$Si4432Interrupt$0$0             si4432
     00008AA9  A$si44324432$383                   si4432
     00008AA9  C$si4432.c$271$1_0$680             si4432
     00008AA9  C$si4432.c$273$1_0$680             si4432
     00008AA9  G$Si4432GetVoltage$0$0             si4432
     00008AA9  _Si4432GetVoltage                  si4432
     00008AAB  A$si44324432$384                   si4432
     00008AAE  A$si44324432$385                   si4432
     00008AB0  A$si44324432$386                   si4432
     00008AB1  A$si44324432$387                   si4432
     00008AB2  A$si44324432$388                   si4432
     00008AB3  A$si44324432$389                   si4432
     00008AB4  A$si44324432$390                   si4432
     00008AB5  A$si44324432$391                   si4432
     00008AB8  A$si44324432$392                   si4432
     00008ABA  A$si44324432$393                   si4432
     00008ABD  A$si44324432$398                   si4432
     00008ABD  C$si4432.c$274$1_0$680             si4432
     00008ABD  XG$Si4432GetVoltage$0$0            si4432
     00008ABE  A$si44324432$408                   si4432
     00008ABE  C$si4432.c$282$1_0$682             si4432
     00008ABE  C$si4432.c$286$1_0$682             si4432
     00008ABE  G$Si4432GetTemperature$0$0         si4432
ASxxxx Linker V03.00 + NoICE + sdld,  page 35.
Hexadecimal  [32-Bits]

Area                                    Addr        Size        Decimal Bytes (Attributes)
--------------------------------        ----        ----        ------- ----- ------------
CODE                                00008306    000019D2 =        6610. bytes (REL,CON)

      Value  Global                              Global Defined In Module
      -----  --------------------------------   ------------------------
     00008ABE  _Si4432GetTemperature              si4432
     00008AC0  A$si44324432$409                   si4432
     00008AC2  A$si44324432$410                   si4432
     00008AC5  A$si44324432$411                   si4432
     00008AC6  A$si44324432$414                   si4432
     00008AC6  C$si4432.c$287$1_0$682             si4432
     00008AC8  A$si44324432$415                   si4432
     00008ACA  A$si44324432$416                   si4432
     00008ACD  A$si44324432$417                   si4432
     00008ACE  A$si44324432$420                   si4432
     00008ACE  C$si4432.c$288$1_0$682             si4432
     00008AD0  A$si44324432$421                   si4432
     00008AD3  A$si44324432$422                   si4432
     00008AD5  A$si44324432$423                   si4432
     00008AD6  A$si44324432$426                   si4432
     00008AD6  C$si4432.c$289$1_0$682             si4432
     00008AD7  A$si44324432$427                   si4432
     00008AD8  A$si44324432$428                   si4432
     00008AD9  A$si44324432$429                   si4432
     00008ADA  A$si44324432$430                   si4432
     00008ADD  A$si44324432$431                   si4432
     00008ADE  A$si44324432$432                   si4432
     00008AE0  A$si44324432$433                   si4432
     00008AE2  A$si44324432$434                   si4432
     00008AE4  A$si44324432$435                   si4432
     00008AE5  A$si44324432$436                   si4432
     00008AE8  A$si44324432$437                   si4432
     00008AEA  A$si44324432$438                   si4432
     00008AED  A$si44324432$443                   si4432
     00008AED  C$si4432.c$290$1_0$682             si4432
     00008AED  XG$Si4432GetTemperature$0$0        si4432
     00008AEE  A$si44324432$456                   si4432
     00008AEE  C$si4432.c$292$1_0$684             si4432
     00008AEE  C$si4432.c$295$1_0$684             si4432
     00008AEE  C$si4432.c$297$2_0$685             si4432
     00008AEE  G$Si4432ReadRssi$0$0               si4432
     00008AEE  _Si4432ReadRssi                    si4432
     00008AF0  A$si44324432$457                   si4432
     00008AF3  A$si44324432$458                   si4432
     00008AF5  A$si44324432$459                   si4432
     00008AF6  A$si44324432$462                   si4432
     00008AF6  C$si4432.c$299$1_0$684             si4432
     00008AF7  A$si44324432$463                   si4432
     00008AF9  A$si44324432$466                   si4432
     00008AF9  C$si4432.c$301$1_0$684             si4432
     00008AFA  A$si44324432$471                   si4432
     00008AFA  C$si4432.c$302$1_0$684             si4432
     00008AFA  XG$Si4432ReadRssi$0$0              si4432
     00008AFB  A$si44324432$479                   si4432
     00008AFB  C$si4432.c$304$1_0$687             si4432
     00008AFB  G$Si4432SetWakeUpTimer$0$0         si4432
ASxxxx Linker V03.00 + NoICE + sdld,  page 36.
Hexadecimal  [32-Bits]

Area                                    Addr        Size        Decimal Bytes (Attributes)
--------------------------------        ----        ----        ------- ----- ------------
CODE                                00008306    000019D2 =        6610. bytes (REL,CON)

      Value  Global                              Global Defined In Module
      -----  --------------------------------   ------------------------
     00008AFB  _Si4432SetWakeUpTimer              si4432
     00008AFD  A$si44324432$482                   si4432
     00008AFD  C$si4432.c$309$1_0$687             si4432
     00008AFF  A$si44324432$483                   si4432
     00008B01  A$si44324432$484                   si4432
     00008B03  A$si44324432$485                   si4432
     00008B05  A$si44324432$489                   si4432
     00008B05  C$si4432.c$312$1_0$687             si4432
     00008B07  A$si44324432$490                   si4432
     00008B08  A$si44324432$491                   si4432
     00008B0A  A$si44324432$492                   si4432
     00008B0B  A$si44324432$493                   si4432
     00008B0D  A$si44324432$494                   si4432
     00008B0E  A$si44324432$495                   si4432
     00008B0F  A$si44324432$496                   si4432
     00008B11  A$si44324432$497                   si4432
     00008B14  A$si44324432$498                   si4432
     00008B16  A$si44324432$499                   si4432
     00008B18  A$si44324432$500                   si4432
     00008B19  A$si44324432$501                   si4432
     00008B1B  A$si44324432$502                   si4432
     00008B1C  A$si44324432$503                   si4432
     00008B1E  A$si44324432$504                   si4432
     00008B1F  A$si44324432$505                   si4432
     00008B21  A$si44324432$506                   si4432
     00008B22  A$si44324432$507                   si4432
     00008B24  A$si44324432$508                   si4432
     00008B26  A$si44324432$511                   si4432
     00008B26  C$si4432.c$314$2_0$688             si4432
     00008B28  A$si44324432$512                   si4432
     00008B2A  A$si44324432$513                   si4432
     00008B2D  A$si44324432$514                   si4432
     00008B2E  A$si44324432$517                   si4432
     00008B2E  C$si4432.c$315$1_0$687             si4432
     00008B30  A$si44324432$518                   si4432
     00008B31  A$si44324432$519                   si4432
     00008B32  A$si44324432$520                   si4432
     00008B34  A$si44324432$521                   si4432
     00008B37  A$si44324432$522                   si4432
     00008B38  A$si44324432$525                   si4432
     00008B38  C$si4432.c$316$2_0$688             si4432
     00008B3A  A$si44324432$526                   si4432
     00008B3B  A$si44324432$527                   si4432
     00008B3D  A$si44324432$528                   si4432
     00008B40  A$si44324432$529                   si4432
     00008B41  A$si44324432$533                   si4432
     00008B43  A$si44324432$536                   si4432
     00008B43  C$si4432.c$321$1_0$687             si4432
     00008B43  XG$Si4432SetWakeUpTimer$0$0        si4432
     00008B44  A$si44324432$544                   si4432
     00008B44  C$si4432.c$323$1_0$690             si4432
ASxxxx Linker V03.00 + NoICE + sdld,  page 37.
Hexadecimal  [32-Bits]

Area                                    Addr        Size        Decimal Bytes (Attributes)
--------------------------------        ----        ----        ------- ----- ------------
CODE                                00008306    000019D2 =        6610. bytes (REL,CON)

      Value  Global                              Global Defined In Module
      -----  --------------------------------   ------------------------
     00008B44  G$Si4432SetDataRate$0$0            si4432
     00008B44  _Si4432SetDataRate                 si4432
     00008B45  A$si44324432$547                   si4432
     00008B45  C$si4432.c$325$1_0$690             si4432
     00008B47  A$si44324432$548                   si4432
     00008B48  A$si44324432$549                   si4432
     00008B4A  A$si44324432$550                   si4432
     00008B4B  A$si44324432$551                   si4432
     00008B4E  A$si44324432$552                   si4432
     00008B50  A$si44324432$553                   si4432
     00008B51  A$si44324432$554                   si4432
     00008B52  A$si44324432$555                   si4432
     00008B54  A$si44324432$556                   si4432
     00008B57  A$si44324432$557                   si4432
     00008B58  A$si44324432$560                   si4432
     00008B58  C$si4432.c$326$1_0$690             si4432
     00008B5A  A$si44324432$561                   si4432
     00008B5C  A$si44324432$562                   si4432
     00008B5D  A$si44324432$563                   si4432
     00008B5F  A$si44324432$564                   si4432
     00008B62  A$si44324432$565                   si4432
     00008B63  A$si44324432$568                   si4432
     00008B63  C$si4432.c$327$1_0$690             si4432
     00008B65  A$si44324432$569                   si4432
     00008B67  A$si44324432$570                   si4432
     00008B68  A$si44324432$571                   si4432
     00008B6A  A$si44324432$572                   si4432
     00008B6D  A$si44324432$573                   si4432
     00008B6E  A$si44324432$576                   si4432
     00008B6E  C$si4432.c$328$1_0$690             si4432
     00008B70  A$si44324432$577                   si4432
     00008B72  A$si44324432$578                   si4432
     00008B73  A$si44324432$579                   si4432
     00008B75  A$si44324432$580                   si4432
     00008B78  A$si44324432$581                   si4432
     00008B79  A$si44324432$584                   si4432
     00008B79  C$si4432.c$329$1_0$690             si4432
     00008B7B  A$si44324432$585                   si4432
     00008B7D  A$si44324432$586                   si4432
     00008B7E  A$si44324432$587                   si4432
     00008B80  A$si44324432$588                   si4432
     00008B83  A$si44324432$589                   si4432
     00008B84  A$si44324432$592                   si4432
     00008B84  C$si4432.c$330$1_0$690             si4432
     00008B86  A$si44324432$593                   si4432
     00008B88  A$si44324432$594                   si4432
     00008B89  A$si44324432$595                   si4432
     00008B8B  A$si44324432$596                   si4432
     00008B8E  A$si44324432$597                   si4432
     00008B8F  A$si44324432$600                   si4432
     00008B8F  C$si4432.c$331$1_0$690             si4432
ASxxxx Linker V03.00 + NoICE + sdld,  page 38.
Hexadecimal  [32-Bits]

Area                                    Addr        Size        Decimal Bytes (Attributes)
--------------------------------        ----        ----        ------- ----- ------------
CODE                                00008306    000019D2 =        6610. bytes (REL,CON)

      Value  Global                              Global Defined In Module
      -----  --------------------------------   ------------------------
     00008B91  A$si44324432$601                   si4432
     00008B93  A$si44324432$602                   si4432
     00008B94  A$si44324432$603                   si4432
     00008B96  A$si44324432$604                   si4432
     00008B99  A$si44324432$605                   si4432
     00008B9A  A$si44324432$608                   si4432
     00008B9A  C$si4432.c$332$1_0$690             si4432
     00008B9C  A$si44324432$609                   si4432
     00008B9E  A$si44324432$610                   si4432
     00008B9F  A$si44324432$611                   si4432
     00008BA1  A$si44324432$612                   si4432
     00008BA4  A$si44324432$613                   si4432
     00008BA5  A$si44324432$616                   si4432
     00008BA5  C$si4432.c$333$1_0$690             si4432
     00008BA7  A$si44324432$617                   si4432
     00008BA9  A$si44324432$618                   si4432
     00008BAA  A$si44324432$619                   si4432
     00008BAC  A$si44324432$620                   si4432
     00008BAF  A$si44324432$621                   si4432
     00008BB0  A$si44324432$624                   si4432
     00008BB0  C$si4432.c$334$1_0$690             si4432
     00008BB2  A$si44324432$625                   si4432
     00008BB4  A$si44324432$626                   si4432
     00008BB5  A$si44324432$627                   si4432
     00008BB7  A$si44324432$628                   si4432
     00008BBA  A$si44324432$629                   si4432
     00008BBB  A$si44324432$632                   si4432
     00008BBB  C$si4432.c$335$1_0$690             si4432
     00008BBD  A$si44324432$633                   si4432
     00008BBF  A$si44324432$634                   si4432
     00008BC0  A$si44324432$635                   si4432
     00008BC2  A$si44324432$636                   si4432
     00008BC5  A$si44324432$637                   si4432
     00008BC6  A$si44324432$640                   si4432
     00008BC6  C$si4432.c$336$1_0$690             si4432
     00008BC8  A$si44324432$641                   si4432
     00008BCA  A$si44324432$642                   si4432
     00008BCB  A$si44324432$643                   si4432
     00008BCD  A$si44324432$644                   si4432
     00008BD0  A$si44324432$645                   si4432
     00008BD1  A$si44324432$648                   si4432
     00008BD1  C$si4432.c$337$1_0$690             si4432
     00008BD3  A$si44324432$649                   si4432
     00008BD5  A$si44324432$650                   si4432
     00008BD6  A$si44324432$651                   si4432
     00008BD8  A$si44324432$652                   si4432
     00008BDB  A$si44324432$653                   si4432
     00008BDC  A$si44324432$656                   si4432
     00008BDC  C$si4432.c$338$1_0$690             si4432
     00008BDE  A$si44324432$657                   si4432
     00008BE0  A$si44324432$658                   si4432
ASxxxx Linker V03.00 + NoICE + sdld,  page 39.
Hexadecimal  [32-Bits]

Area                                    Addr        Size        Decimal Bytes (Attributes)
--------------------------------        ----        ----        ------- ----- ------------
CODE                                00008306    000019D2 =        6610. bytes (REL,CON)

      Value  Global                              Global Defined In Module
      -----  --------------------------------   ------------------------
     00008BE1  A$si44324432$659                   si4432
     00008BE3  A$si44324432$660                   si4432
     00008BE6  A$si44324432$661                   si4432
     00008BE7  A$si44324432$664                   si4432
     00008BE7  C$si4432.c$339$1_0$690             si4432
     00008BE9  A$si44324432$665                   si4432
     00008BEB  A$si44324432$666                   si4432
     00008BEC  A$si44324432$667                   si4432
     00008BEE  A$si44324432$668                   si4432
     00008BF1  A$si44324432$669                   si4432
     00008BF2  A$si44324432$672                   si4432
     00008BF2  C$si4432.c$340$1_0$690             si4432
     00008BF4  A$si44324432$673                   si4432
     00008BF6  A$si44324432$674                   si4432
     00008BF7  A$si44324432$675                   si4432
     00008BF9  A$si44324432$676                   si4432
     00008BFC  A$si44324432$677                   si4432
     00008BFD  A$si44324432$680                   si4432
     00008BFD  C$si4432.c$341$1_0$690             si4432
     00008BFF  A$si44324432$681                   si4432
     00008C01  A$si44324432$682                   si4432
     00008C02  A$si44324432$683                   si4432
     00008C04  A$si44324432$684                   si4432
     00008C07  A$si44324432$685                   si4432
     00008C08  A$si44324432$688                   si4432
     00008C08  C$si4432.c$342$1_0$690             si4432
     00008C0A  A$si44324432$689                   si4432
     00008C0C  A$si44324432$690                   si4432
     00008C0D  A$si44324432$691                   si4432
     00008C0F  A$si44324432$692                   si4432
     00008C12  A$si44324432$693                   si4432
     00008C13  A$si44324432$696                   si4432
     00008C14  A$si44324432$699                   si4432
     00008C14  C$si4432.c$343$1_0$690             si4432
     00008C14  XG$Si4432SetDataRate$0$0           si4432
     00008C15  A$si44324432$709                   si4432
     00008C15  C$si4432.c$345$1_0$692             si4432
     00008C15  C$si4432.c$347$1_0$692             si4432
     00008C15  G$Si4432SetChannel$0$0             si4432
     00008C15  _Si4432SetChannel                  si4432
     00008C17  A$si44324432$710                   si4432
     00008C18  A$si44324432$711                   si4432
     00008C19  A$si44324432$712                   si4432
     00008C1A  A$si44324432$713                   si4432
     00008C1B  A$si44324432$714                   si4432
     00008C1C  A$si44324432$715                   si4432
     00008C1F  A$si44324432$716                   si4432
     00008C21  A$si44324432$717                   si4432
     00008C24  A$si44324432$718                   si4432
     00008C26  A$si44324432$719                   si4432
     00008C27  A$si44324432$720                   si4432
ASxxxx Linker V03.00 + NoICE + sdld,  page 40.
Hexadecimal  [32-Bits]

Area                                    Addr        Size        Decimal Bytes (Attributes)
--------------------------------        ----        ----        ------- ----- ------------
CODE                                00008306    000019D2 =        6610. bytes (REL,CON)

      Value  Global                              Global Defined In Module
      -----  --------------------------------   ------------------------
     00008C29  A$si44324432$721                   si4432
     00008C2C  A$si44324432$722                   si4432
     00008C2E  A$si44324432$727                   si4432
     00008C2E  C$si4432.c$348$1_0$692             si4432
     00008C2E  XG$Si4432SetChannel$0$0            si4432
     00008C2F  A$si44324432$735                   si4432
     00008C2F  C$si4432.c$350$1_0$694             si4432
     00008C2F  G$Si4432ReadStatus$0$0             si4432
     00008C2F  _Si4432ReadStatus                  si4432
     00008C30  A$si44324432$738                   si4432
     00008C30  C$si4432.c$352$1_0$694             si4432
     00008C34  A$si44324432$741                   si4432
     00008C34  C$si4432.c$354$1_0$694             si4432
     00008C36  A$si44324432$742                   si4432
     00008C39  A$si44324432$743                   si4432
     00008C3A  A$si44324432$746                   si4432
     00008C3A  C$si4432.c$355$1_0$694             si4432
     00008C3C  A$si44324432$747                   si4432
     00008C3E  A$si44324432$748                   si4432
     00008C3F  A$si44324432$749                   si4432
     00008C40  A$si44324432$750                   si4432
     00008C41  A$si44324432$751                   si4432
     00008C42  A$si44324432$752                   si4432
     00008C44  A$si44324432$753                   si4432
     00008C47  A$si44324432$754                   si4432
     00008C49  A$si44324432$755                   si4432
     00008C4A  A$si44324432$756                   si4432
     00008C4B  A$si44324432$759                   si4432
     00008C4B  C$si4432.c$356$1_0$694             si4432
     00008C4D  A$si44324432$760                   si4432
     00008C50  A$si44324432$761                   si4432
     00008C51  A$si44324432$762                   si4432
     00008C53  A$si44324432$763                   si4432
     00008C56  A$si44324432$764                   si4432
     00008C58  A$si44324432$765                   si4432
     00008C59  A$si44324432$766                   si4432
     00008C5A  A$si44324432$769                   si4432
     00008C5A  C$si4432.c$357$1_0$694             si4432
     00008C5C  A$si44324432$770                   si4432
     00008C5F  A$si44324432$771                   si4432
     00008C60  A$si44324432$772                   si4432
     00008C62  A$si44324432$773                   si4432
     00008C65  A$si44324432$774                   si4432
     00008C67  A$si44324432$775                   si4432
     00008C68  A$si44324432$776                   si4432
     00008C69  A$si44324432$779                   si4432
     00008C69  C$si4432.c$358$1_0$694             si4432
     00008C6B  A$si44324432$780                   si4432
     00008C6E  A$si44324432$781                   si4432
     00008C6F  A$si44324432$782                   si4432
     00008C71  A$si44324432$783                   si4432
ASxxxx Linker V03.00 + NoICE + sdld,  page 41.
Hexadecimal  [32-Bits]

Area                                    Addr        Size        Decimal Bytes (Attributes)
--------------------------------        ----        ----        ------- ----- ------------
CODE                                00008306    000019D2 =        6610. bytes (REL,CON)

      Value  Global                              Global Defined In Module
      -----  --------------------------------   ------------------------
     00008C74  A$si44324432$784                   si4432
     00008C76  A$si44324432$785                   si4432
     00008C77  A$si44324432$786                   si4432
     00008C78  A$si44324432$789                   si4432
     00008C78  C$si4432.c$359$1_0$694             si4432
     00008C7A  A$si44324432$790                   si4432
     00008C7D  A$si44324432$791                   si4432
     00008C7E  A$si44324432$792                   si4432
     00008C80  A$si44324432$793                   si4432
     00008C83  A$si44324432$794                   si4432
     00008C85  A$si44324432$795                   si4432
     00008C86  A$si44324432$796                   si4432
     00008C87  A$si44324432$799                   si4432
     00008C87  C$si4432.c$360$1_0$694             si4432
     00008C89  A$si44324432$800                   si4432
     00008C8C  A$si44324432$801                   si4432
     00008C8E  A$si44324432$802                   si4432
     00008C90  A$si44324432$803                   si4432
     00008C91  A$si44324432$806                   si4432
     00008C91  C$si4432.c$361$1_0$694             si4432
     00008C93  A$si44324432$807                   si4432
     00008C94  A$si44324432$808                   si4432
     00008C95  A$si44324432$809                   si4432
     00008C97  A$si44324432$810                   si4432
     00008C9A  A$si44324432$811                   si4432
     00008C9C  A$si44324432$812                   si4432
     00008C9D  A$si44324432$813                   si4432
     00008C9E  A$si44324432$816                   si4432
     00008C9E  C$si4432.c$363$1_0$694             si4432
     00008CA2  A$si44324432$819                   si4432
     00008CA3  A$si44324432$822                   si4432
     00008CA3  C$si4432.c$364$1_0$694             si4432
     00008CA3  XG$Si4432ReadStatus$0$0            si4432
     00008CA4  A$si44324432$832                   si4432
     00008CA4  C$si4432.c$366$1_0$696             si4432
     00008CA4  C$si4432.c$368$1_0$696             si4432
     00008CA4  G$Si4432SetMode$0$0                si4432
     00008CA4  _Si4432SetMode                     si4432
     00008CA6  A$si44324432$833                   si4432
     00008CA7  A$si44324432$834                   si4432
     00008CA9  A$si44324432$835                   si4432
     00008CAC  A$si44324432$836                   si4432
     00008CAD  A$si44324432$841                   si4432
     00008CAD  C$si4432.c$370$1_0$696             si4432
     00008CAD  XG$Si4432SetMode$0$0               si4432
     00008CAE  A$si44324432$851                   si4432
     00008CAE  C$si4432.c$372$1_0$698             si4432
     00008CAE  C$si4432.c$374$1_0$698             si4432
     00008CAE  G$Si4432Idle$0$0                   si4432
     00008CAE  _Si4432Idle                        si4432
     00008CB0  A$si44324432$852                   si4432
ASxxxx Linker V03.00 + NoICE + sdld,  page 42.
Hexadecimal  [32-Bits]

Area                                    Addr        Size        Decimal Bytes (Attributes)
--------------------------------        ----        ----        ------- ----- ------------
CODE                                00008306    000019D2 =        6610. bytes (REL,CON)

      Value  Global                              Global Defined In Module
      -----  --------------------------------   ------------------------
     00008CB2  A$si44324432$853                   si4432
     00008CB5  A$si44324432$854                   si4432
     00008CB6  A$si44324432$857                   si4432
     00008CB6  C$si4432.c$375$1_0$698             si4432
     00008CB8  A$si44324432$858                   si4432
     00008CBA  A$si44324432$859                   si4432
     00008CBD  A$si44324432$860                   si4432
     00008CBE  A$si44324432$865                   si4432
     00008CBE  C$si4432.c$376$1_0$698             si4432
     00008CBE  XG$Si4432Idle$0$0                  si4432
     00008CBF  A$si44324432$875                   si4432
     00008CBF  C$si4432.c$378$1_0$700             si4432
     00008CBF  C$si4432.c$380$1_0$700             si4432
     00008CBF  G$Si4432Standby$0$0                si4432
     00008CBF  _Si4432Standby                     si4432
     00008CC1  A$si44324432$876                   si4432
     00008CC3  A$si44324432$877                   si4432
     00008CC6  A$si44324432$878                   si4432
     00008CC7  A$si44324432$881                   si4432
     00008CC7  C$si4432.c$381$1_0$700             si4432
     00008CC9  A$si44324432$882                   si4432
     00008CCB  A$si44324432$883                   si4432
     00008CCE  A$si44324432$884                   si4432
     00008CCF  A$si44324432$889                   si4432
     00008CCF  C$si4432.c$382$1_0$700             si4432
     00008CCF  XG$Si4432Standby$0$0               si4432
     00008CD0  A$si44324432$899                   si4432
     00008CD0  C$si4432.c$384$1_0$702             si4432
     00008CD0  C$si4432.c$386$1_0$702             si4432
     00008CD0  G$Si4432Receive$0$0                si4432
     00008CD0  _Si4432Receive                     si4432
     00008CD2  A$si44324432$900                   si4432
     00008CD4  A$si44324432$901                   si4432
     00008CD7  A$si44324432$902                   si4432
     00008CD8  A$si44324432$905                   si4432
     00008CD8  C$si4432.c$387$1_0$702             si4432
     00008CDA  A$si44324432$906                   si4432
     00008CDC  A$si44324432$907                   si4432
     00008CDF  A$si44324432$908                   si4432
     00008CE0  A$si44324432$913                   si4432
     00008CE0  C$si4432.c$388$1_0$702             si4432
     00008CE0  XG$Si4432Receive$0$0               si4432
     00008CE1  A$si44324432$921                   si4432
     00008CE1  C$si4432.c$390$1_0$704             si4432
     00008CE1  G$Si4432Transmit$0$0               si4432
     00008CE1  _Si4432Transmit                    si4432
     00008CE2  A$si44324432$924                   si4432
     00008CE2  C$si4432.c$394$1_0$704             si4432
     00008CE4  A$si44324432$925                   si4432
     00008CE6  A$si44324432$926                   si4432
     00008CE7  A$si44324432$927                   si4432
ASxxxx Linker V03.00 + NoICE + sdld,  page 43.
Hexadecimal  [32-Bits]

Area                                    Addr        Size        Decimal Bytes (Attributes)
--------------------------------        ----        ----        ------- ----- ------------
CODE                                00008306    000019D2 =        6610. bytes (REL,CON)

      Value  Global                              Global Defined In Module
      -----  --------------------------------   ------------------------
     00008CE9  A$si44324432$928                   si4432
     00008CEC  A$si44324432$929                   si4432
     00008CEE  A$si44324432$932                   si4432
     00008CEE  C$si4432.c$396$1_0$704             si4432
     00008CF0  A$si44324432$933                   si4432
     00008CF2  A$si44324432$934                   si4432
     00008CF4  A$si44324432$937                   si4432
     00008CF4  C$si4432.c$398$2_0$705             si4432
     00008CF6  A$si44324432$938                   si4432
     00008CF8  A$si44324432$939                   si4432
     00008CF9  A$si44324432$940                   si4432
     00008CFB  A$si44324432$941                   si4432
     00008CFE  A$si44324432$942                   si4432
     00008CFF  A$si44324432$945                   si4432
     00008CFF  C$si4432.c$399$1_0$704             si4432
     00008D01  A$si44324432$946                   si4432
     00008D03  A$si44324432$948                   si4432
     00008D05  A$si44324432$949                   si4432
     00008D07  A$si44324432$950                   si4432
     00008D09  A$si44324432$953                   si4432
     00008D09  C$si4432.c$401$4_0$707             si4432
     00008D0A  A$si44324432$954                   si4432
     00008D0C  A$si44324432$955                   si4432
     00008D0D  A$si44324432$956                   si4432
     00008D10  A$si44324432$957                   si4432
     00008D11  A$si44324432$958                   si4432
     00008D12  A$si44324432$959                   si4432
     00008D14  A$si44324432$960                   si4432
     00008D17  A$si44324432$961                   si4432
     00008D18  A$si44324432$964                   si4432
     00008D18  C$si4432.c$399$3_0$706             si4432
     00008D1A  A$si44324432$965                   si4432
     00008D1C  A$si44324432$969                   si4432
     00008D1C  C$si4432.c$405$1_0$704             si4432
     00008D1E  A$si44324432$970                   si4432
     00008D20  A$si44324432$971                   si4432
     00008D23  A$si44324432$972                   si4432
     00008D24  A$si44324432$975                   si4432
     00008D24  C$si4432.c$406$1_0$704             si4432
     00008D26  A$si44324432$976                   si4432
     00008D28  A$si44324432$977                   si4432
     00008D2B  A$si44324432$978                   si4432
     00008D2C  A$si44324432$981                   si4432
     00008D2D  A$si44324432$984                   si4432
     00008D2D  C$si4432.c$407$1_0$704             si4432
     00008D2D  XG$Si4432Transmit$0$0              si4432
     00008D2E  A$si44324432$992                   si4432
     00008D2E  C$si4432.c$409$1_0$709             si4432
     00008D2E  G$Si4432ReadRxPacket$0$0           si4432
     00008D2E  _Si4432ReadRxPacket                si4432
     00008D2F  A$si44324432$995                   si4432
ASxxxx Linker V03.00 + NoICE + sdld,  page 44.
Hexadecimal  [32-Bits]

Area                                    Addr        Size        Decimal Bytes (Attributes)
--------------------------------        ----        ----        ------- ----- ------------
CODE                                00008306    000019D2 =        6610. bytes (REL,CON)

      Value  Global                              Global Defined In Module
      -----  --------------------------------   ------------------------
     00008D2F  C$si4432.c$414$1_0$709             si4432
     00008D31  A$si44324432$996                   si4432
     00008D34  A$si44324432$997                   si4432
     00008D36  A$si44324432$998                   si4432
     00008D38  A$si44324432$1001                  si4432
     00008D38  C$si4432.c$415$1_0$709             si4432
     00008D3A  A$si44324432$1002                  si4432
     00008D3C  A$si44324432$1003                  si4432
     00008D3E  A$si44324432$1006                  si4432
     00008D3E  C$si4432.c$417$2_0$710             si4432
     00008D41  A$si44324432$1009                  si4432
     00008D41  C$si4432.c$418$2_0$710             si4432
     00008D42  A$si44324432$1010                  si4432
     00008D44  A$si44324432$1014                  si4432
     00008D44  C$si4432.c$421$1_0$709             si4432
     00008D48  A$si44324432$1017                  si4432
     00008D48  C$si4432.c$423$1_0$709             si4432
     00008D4A  A$si44324432$1018                  si4432
     00008D4D  A$si44324432$1019                  si4432
     00008D4E  A$si44324432$1022                  si4432
     00008D4E  C$si4432.c$424$1_0$709             si4432
     00008D50  A$si44324432$1024                  si4432
     00008D52  A$si44324432$1025                  si4432
     00008D54  A$si44324432$1026                  si4432
     00008D56  A$si44324432$1029                  si4432
     00008D56  C$si4432.c$426$3_0$712             si4432
     00008D57  A$si44324432$1030                  si4432
     00008D59  A$si44324432$1031                  si4432
     00008D5A  A$si44324432$1032                  si4432
     00008D5D  A$si44324432$1033                  si4432
     00008D5E  A$si44324432$1034                  si4432
     00008D60  A$si44324432$1035                  si4432
     00008D63  A$si44324432$1036                  si4432
     00008D65  A$si44324432$1037                  si4432
     00008D66  A$si44324432$1038                  si4432
     00008D67  A$si44324432$1041                  si4432
     00008D67  C$si4432.c$424$2_0$711             si4432
     00008D69  A$si44324432$1042                  si4432
     00008D6B  A$si44324432$1046                  si4432
     00008D6B  C$si4432.c$429$1_0$709             si4432
     00008D6F  A$si44324432$1049                  si4432
     00008D6F  C$si4432.c$430$1_0$709             si4432
     00008D71  A$si44324432$1053                  si4432
     00008D72  A$si44324432$1056                  si4432
     00008D72  C$si4432.c$431$1_0$709             si4432
     00008D72  XG$Si4432ReadRxPacket$0$0          si4432
     00008D73  A$si44324432$1064                  si4432
     00008D73  C$si4432.c$433$1_0$714             si4432
     00008D73  G$Si4432ClearRxFifo$0$0            si4432
     00008D73  _Si4432ClearRxFifo                 si4432
     00008D74  A$si44324432$1067                  si4432
ASxxxx Linker V03.00 + NoICE + sdld,  page 45.
Hexadecimal  [32-Bits]

Area                                    Addr        Size        Decimal Bytes (Attributes)
--------------------------------        ----        ----        ------- ----- ------------
CODE                                00008306    000019D2 =        6610. bytes (REL,CON)

      Value  Global                              Global Defined In Module
      -----  --------------------------------   ------------------------
     00008D74  C$si4432.c$437$1_0$714             si4432
     00008D76  A$si44324432$1068                  si4432
     00008D79  A$si44324432$1069                  si4432
     00008D7B  A$si44324432$1070                  si4432
     00008D7D  A$si44324432$1073                  si4432
     00008D7D  C$si4432.c$438$1_0$714             si4432
     00008D7F  A$si44324432$1074                  si4432
     00008D81  A$si44324432$1075                  si4432
     00008D82  A$si44324432$1076                  si4432
     00008D84  A$si44324432$1077                  si4432
     00008D87  A$si44324432$1078                  si4432
     00008D88  A$si44324432$1081                  si4432
     00008D88  C$si4432.c$439$1_0$714             si4432
     00008D8A  A$si44324432$1082                  si4432
     00008D8B  A$si44324432$1083                  si4432
     00008D8D  A$si44324432$1084                  si4432
     00008D90  A$si44324432$1085                  si4432
     00008D91  A$si44324432$1088                  si4432
     00008D92  A$si44324432$1091                  si4432
     00008D92  C$si4432.c$440$1_0$714             si4432
     00008D92  XG$Si4432ClearRxFifo$0$0           si4432
     00008D93  A$si44324432$1099                  si4432
     00008D93  C$si4432.c$442$1_0$716             si4432
     00008D93  G$Si4432ClearTxFifo$0$0            si4432
     00008D93  _Si4432ClearTxFifo                 si4432
     00008D94  A$si44324432$1102                  si4432
     00008D94  C$si4432.c$446$1_0$716             si4432
     00008D96  A$si44324432$1103                  si4432
     00008D99  A$si44324432$1104                  si4432
     00008D9B  A$si44324432$1105                  si4432
     00008D9D  A$si44324432$1108                  si4432
     00008D9D  C$si4432.c$447$1_0$716             si4432
     00008D9F  A$si44324432$1109                  si4432
     00008DA1  A$si44324432$1110                  si4432
     00008DA2  A$si44324432$1111                  si4432
     00008DA4  A$si44324432$1112                  si4432
     00008DA7  A$si44324432$1113                  si4432
     00008DA8  A$si44324432$1116                  si4432
     00008DA8  C$si4432.c$448$1_0$716             si4432
     00008DAA  A$si44324432$1117                  si4432
     00008DAB  A$si44324432$1118                  si4432
     00008DAD  A$si44324432$1119                  si4432
     00008DB0  A$si44324432$1120                  si4432
     00008DB1  A$si44324432$1123                  si4432
     00008DB2  A$si44324432$1126                  si4432
     00008DB2  C$si4432.c$449$1_0$716             si4432
     00008DB2  XG$Si4432ClearTxFifo$0$0           si4432
     00008DB3  A$si44324432$1136                  si4432
     00008DB3  C$si4432.c$454$1_0$718             si4432
     00008DB3  C$si4432.c$458$1_0$718             si4432
     00008DB3  Fsi4432$ReadRegister$0$0           si4432
ASxxxx Linker V03.00 + NoICE + sdld,  page 46.
Hexadecimal  [32-Bits]

Area                                    Addr        Size        Decimal Bytes (Attributes)
--------------------------------        ----        ----        ------- ----- ------------
CODE                                00008306    000019D2 =        6610. bytes (REL,CON)

      Value  Global                              Global Defined In Module
      -----  --------------------------------   ------------------------
     00008DB7  A$si44324432$1139                  si4432
     00008DB7  C$si4432.c$460$1_0$718             si4432
     00008DB9  A$si44324432$1140                  si4432
     00008DBA  A$si44324432$1141                  si4432
     00008DBD  A$si44324432$1142                  si4432
     00008DBE  A$si44324432$1145                  si4432
     00008DBE  C$si4432.c$461$1_0$718             si4432
     00008DC0  A$si44324432$1146                  si4432
     00008DC3  A$si44324432$1147                  si4432
     00008DC5  A$si44324432$1148                  si4432
     00008DC6  A$si44324432$1151                  si4432
     00008DC6  C$si4432.c$463$1_0$718             si4432
     00008DCA  A$si44324432$1154                  si4432
     00008DCA  C$si4432.c$464$1_0$718             si4432
     00008DCB  A$si44324432$1159                  si4432
     00008DCB  C$si4432.c$465$1_0$718             si4432
     00008DCB  XFsi4432$ReadRegister$0$0          si4432
     00008DCC  A$si44324432$1169                  si4432
     00008DCC  C$si4432.c$467$1_0$720             si4432
     00008DCC  C$si4432.c$469$1_0$720             si4432
     00008DCC  G$WriteRegister$0$0                si4432
     00008DCC  _WriteRegister                     si4432
     00008DD0  A$si44324432$1172                  si4432
     00008DD0  C$si4432.c$471$1_0$720             si4432
     00008DD2  A$si44324432$1173                  si4432
     00008DD4  A$si44324432$1174                  si4432
     00008DD5  A$si44324432$1175                  si4432
     00008DD8  A$si44324432$1176                  si4432
     00008DD9  A$si44324432$1179                  si4432
     00008DD9  C$si4432.c$472$1_0$720             si4432
     00008DDB  A$si44324432$1180                  si4432
     00008DDC  A$si44324432$1181                  si4432
     00008DDF  A$si44324432$1182                  si4432
     00008DE0  A$si44324432$1185                  si4432
     00008DE0  C$si4432.c$474$1_0$720             si4432
     00008DE4  A$si44324432$1190                  si4432
     00008DE4  C$si4432.c$475$1_0$720             si4432
     00008DE4  XG$WriteRegister$0$0               si4432
     00008DE5  A$si44324432$1198                  si4432
     00008DE5  C$si4432.c$477$1_0$722             si4432
     00008DE5  Fsi4432$SetClearRegister$0$0       si4432
     00008DE6  A$si44324432$1201                  si4432
     00008DE6  C$si4432.c$479$1_0$722             si4432
     00008DE8  A$si44324432$1202                  si4432
     00008DE9  A$si44324432$1203                  si4432
     00008DEC  A$si44324432$1204                  si4432
     00008DEE  A$si44324432$1205                  si4432
     00008DF0  A$si44324432$1208                  si4432
     00008DF0  C$si4432.c$480$1_0$722             si4432
     00008DF2  A$si44324432$1209                  si4432
     00008DF3  A$si44324432$1210                  si4432
ASxxxx Linker V03.00 + NoICE + sdld,  page 47.
Hexadecimal  [32-Bits]

Area                                    Addr        Size        Decimal Bytes (Attributes)
--------------------------------        ----        ----        ------- ----- ------------
CODE                                00008306    000019D2 =        6610. bytes (REL,CON)

      Value  Global                              Global Defined In Module
      -----  --------------------------------   ------------------------
     00008DF5  A$si44324432$1213                  si4432
     00008DF5  C$si4432.c$481$1_0$722             si4432
     00008DF7  A$si44324432$1216                  si4432
     00008DF7  C$si4432.c$482$1_0$722             si4432
     00008DF8  A$si44324432$1217                  si4432
     00008DFA  A$si44324432$1218                  si4432
     00008DFB  A$si44324432$1219                  si4432
     00008DFE  A$si44324432$1220                  si4432
     00008DFF  A$si44324432$1223                  si4432
     00008E00  A$si44324432$1226                  si4432
     00008E00  C$si4432.c$483$1_0$722             si4432
     00008E00  XFsi4432$SetClearRegister$0$0      si4432
     00008E01  A$si44324432$1236                  si4432
     00008E01  C$si4432.c$485$1_0$724             si4432
     00008E01  C$si4432.c$487$1_0$724             si4432
     00008E01  Fsi4432$ReadRegisters$0$0          si4432
     00008E05  A$si44324432$1239                  si4432
     00008E05  C$si4432.c$489$1_0$724             si4432
     00008E07  A$si44324432$1240                  si4432
     00008E08  A$si44324432$1241                  si4432
     00008E0B  A$si44324432$1242                  si4432
     00008E0C  A$si44324432$1245                  si4432
     00008E0C  C$si4432.c$490$1_0$724             si4432
     00008E0E  A$si44324432$1246                  si4432
     00008E0F  A$si44324432$1247                  si4432
     00008E11  A$si44324432$1248                  si4432
     00008E12  A$si44324432$1249                  si4432
     00008E15  A$si44324432$1250                  si4432
     00008E17  A$si44324432$1253                  si4432
     00008E17  C$si4432.c$492$1_0$724             si4432
     00008E1B  A$si44324432$1258                  si4432
     00008E1B  C$si4432.c$493$1_0$724             si4432
     00008E1B  XFsi4432$ReadRegisters$0$0         si4432
     00008E1C  A$si44324432$1268                  si4432
     00008E1C  C$si4432.c$495$1_0$726             si4432
     00008E1C  C$si4432.c$497$1_0$726             si4432
     00008E1C  Fsi4432$WriteRegisters$0$0         si4432
     00008E20  A$si44324432$1271                  si4432
     00008E20  C$si4432.c$499$1_0$726             si4432
     00008E22  A$si44324432$1272                  si4432
     00008E24  A$si44324432$1273                  si4432
     00008E25  A$si44324432$1274                  si4432
     00008E28  A$si44324432$1275                  si4432
     00008E29  A$si44324432$1278                  si4432
     00008E29  C$si4432.c$500$1_0$726             si4432
     00008E2B  A$si44324432$1279                  si4432
     00008E2C  A$si44324432$1280                  si4432
     00008E2E  A$si44324432$1281                  si4432
     00008E2F  A$si44324432$1282                  si4432
     00008E32  A$si44324432$1283                  si4432
     00008E34  A$si44324432$1286                  si4432
ASxxxx Linker V03.00 + NoICE + sdld,  page 48.
Hexadecimal  [32-Bits]

Area                                    Addr        Size        Decimal Bytes (Attributes)
--------------------------------        ----        ----        ------- ----- ------------
CODE                                00008306    000019D2 =        6610. bytes (REL,CON)

      Value  Global                              Global Defined In Module
      -----  --------------------------------   ------------------------
     00008E34  C$si4432.c$502$1_0$726             si4432
     00008E38  A$si44324432$1291                  si4432
     00008E38  C$si4432.c$503$1_0$726             si4432
     00008E38  XFsi4432$WriteRegisters$0$0        si4432
     00008E39  A$si44324432$1301                  si4432
     00008E39  C$si4432.c$505$1_0$728             si4432
     00008E39  C$si4432.c$507$1_0$728             si4432
     00008E39  Fsi4432$EnableInterrupt$0$0        si4432
     00008E3B  A$si44324432$1302                  si4432
     00008E3E  A$si44324432$1303                  si4432
     00008E40  A$si44324432$1304                  si4432
     00008E42  A$si44324432$1305                  si4432
     00008E43  A$si44324432$1306                  si4432
     00008E45  A$si44324432$1307                  si4432
     00008E48  A$si44324432$1308                  si4432
     00008E49  A$si44324432$1311                  si4432
     00008E49  C$si4432.c$508$1_0$728             si4432
     00008E4B  A$si44324432$1312                  si4432
     00008E4E  A$si44324432$1313                  si4432
     00008E50  A$si44324432$1314                  si4432
     00008E52  A$si44324432$1315                  si4432
     00008E53  A$si44324432$1316                  si4432
     00008E55  A$si44324432$1317                  si4432
     00008E58  A$si44324432$1318                  si4432
     00008E59  A$si44324432$1323                  si4432
     00008E59  C$si4432.c$509$1_0$728             si4432
     00008E59  XFsi4432$EnableInterrupt$0$0       si4432
     00008E5A  A$si44324432$1331                  si4432
     00008E5A  C$si4432.c$511$1_0$730             si4432
     00008E5A  Fsi4432$DisableInterrupt$0$0       si4432
     00008E5B  A$si44324432$1334                  si4432
     00008E5B  C$si4432.c$513$1_0$730             si4432
     00008E5D  A$si44324432$1335                  si4432
     00008E60  A$si44324432$1336                  si4432
     00008E62  A$si44324432$1337                  si4432
     00008E64  A$si44324432$1338                  si4432
     00008E66  A$si44324432$1339                  si4432
     00008E67  A$si44324432$1340                  si4432
     00008E69  A$si44324432$1341                  si4432
     00008E6A  A$si44324432$1342                  si4432
     00008E6C  A$si44324432$1343                  si4432
     00008E6F  A$si44324432$1344                  si4432
     00008E70  A$si44324432$1347                  si4432
     00008E70  C$si4432.c$514$1_0$730             si4432
     00008E72  A$si44324432$1348                  si4432
     00008E75  A$si44324432$1349                  si4432
     00008E77  A$si44324432$1350                  si4432
     00008E79  A$si44324432$1351                  si4432
     00008E7B  A$si44324432$1352                  si4432
     00008E7C  A$si44324432$1353                  si4432
     00008E7E  A$si44324432$1354                  si4432
ASxxxx Linker V03.00 + NoICE + sdld,  page 49.
Hexadecimal  [32-Bits]

Area                                    Addr        Size        Decimal Bytes (Attributes)
--------------------------------        ----        ----        ------- ----- ------------
CODE                                00008306    000019D2 =        6610. bytes (REL,CON)

      Value  Global                              Global Defined In Module
      -----  --------------------------------   ------------------------
     00008E7F  A$si44324432$1355                  si4432
     00008E81  A$si44324432$1356                  si4432
     00008E84  A$si44324432$1357                  si4432
     00008E85  A$si44324432$1360                  si4432
     00008E86  A$si44324432$1363                  si4432
     00008E86  C$si4432.c$515$1_0$730             si4432
     00008E86  XFsi4432$DisableInterrupt$0$0      si4432
     00008E87  A$si70217021$62                    si7021
     00008E87  C$si7021.c$6$0_0$640               si7021
     00008E87  Fsi4432$__str_1$0_0$0              si4432
     00008E87  G$Si7021Init$0$0                   si7021
     00008E87  _Si7021Init                        si7021
     00008E88  A$si70217021$65                    si7021
     00008E88  C$si7021.c$10$1_0$640              si7021
     00008E8A  A$si70217021$66                    si7021
     00008E8C  A$si70217021$69                    si7021
     00008E8C  C$si7021.c$11$1_0$640              si7021
     00008E8E  A$si70217021$70                    si7021
     00008E8F  A$si70217021$71                    si7021
     00008E90  A$si70217021$72                    si7021
     00008E91  A$si70217021$73                    si7021
     00008E92  A$si70217021$74                    si7021
     00008E94  A$si70217021$75                    si7021
     00008E97  A$si70217021$76                    si7021
     00008E99  A$si70217021$79                    si7021
     00008E9B  A$si70217021$82                    si7021
     00008E9B  C$si7021.c$12$1_0$640              si7021
     00008E9B  XG$Si7021Init$0$0                  si7021
     00008E9C  A$si70217021$90                    si7021
     00008E9C  C$si7021.c$14$1_0$642              si7021
     00008E9C  G$Si7021Kick$0$0                   si7021
     00008E9C  _Si7021Kick                        si7021
     00008E9D  A$si70217021$93                    si7021
     00008E9D  C$si7021.c$18$1_0$642              si7021
     00008E9E  A$si70217021$94                    si7021
     00008E9F  A$si70217021$95                    si7021
     00008EA1  A$si70217021$96                    si7021
     00008EA2  A$si70217021$99                    si7021
     00008EA2  C$si7021.c$19$1_0$642              si7021
     00008EA4  A$si70217021$100                   si7021
     00008EA5  A$si70217021$101                   si7021
     00008EA7  A$si70217021$102                   si7021
     00008EAA  A$si70217021$103                   si7021
     00008EAC  A$si70217021$106                   si7021
     00008EAD  A$si70217021$109                   si7021
     00008EAD  C$si7021.c$20$1_0$642              si7021
     00008EAD  XG$Si7021Kick$0$0                  si7021
     00008EAE  A$si70217021$117                   si7021
     00008EAE  C$si7021.c$22$1_0$644              si7021
     00008EAE  G$Si7021GetHumidity$0$0            si7021
     00008EAE  _Si7021GetHumidity                 si7021
ASxxxx Linker V03.00 + NoICE + sdld,  page 50.
Hexadecimal  [32-Bits]

Area                                    Addr        Size        Decimal Bytes (Attributes)
--------------------------------        ----        ----        ------- ----- ------------
CODE                                00008306    000019D2 =        6610. bytes (REL,CON)

      Value  Global                              Global Defined In Module
      -----  --------------------------------   ------------------------
     00008EB0  A$si70217021$120                   si7021
     00008EB0  C$si7021.c$27$1_0$644              si7021
     00008EB2  A$si70217021$121                   si7021
     00008EB3  A$si70217021$122                   si7021
     00008EB4  A$si70217021$123                   si7021
     00008EB5  A$si70217021$124                   si7021
     00008EB6  A$si70217021$125                   si7021
     00008EB8  A$si70217021$126                   si7021
     00008EBB  A$si70217021$127                   si7021
     00008EBD  A$si70217021$130                   si7021
     00008EBD  C$si7021.c$28$1_0$644              si7021
     00008EBF  A$si70217021$131                   si7021
     00008EC1  A$si70217021$132                   si7021
     00008EC3  A$si70217021$133                   si7021
     00008EC5  A$si70217021$134                   si7021
     00008EC6  A$si70217021$135                   si7021
     00008EC7  A$si70217021$136                   si7021
     00008ECA  A$si70217021$137                   si7021
     00008ECC  A$si70217021$140                   si7021
     00008ECC  C$si7021.c$30$1_0$644              si7021
     00008ECD  A$si70217021$141                   si7021
     00008ECF  A$si70217021$142                   si7021
     00008ED1  A$si70217021$143                   si7021
     00008ED3  A$si70217021$144                   si7021
     00008ED4  A$si70217021$145                   si7021
     00008ED5  A$si70217021$146                   si7021
     00008ED8  A$si70217021$147                   si7021
     00008EDA  A$si70217021$148                   si7021
     00008EDB  A$si70217021$149                   si7021
     00008EDE  A$si70217021$152                   si7021
     00008EE0  A$si70217021$155                   si7021
     00008EE0  C$si7021.c$31$1_0$644              si7021
     00008EE0  XG$Si7021GetHumidity$0$0           si7021
     00008EE1  A$si70217021$163                   si7021
     00008EE1  C$si7021.c$33$1_0$646              si7021
     00008EE1  G$Si7021GetTemperature$0$0         si7021
     00008EE1  _Si7021GetTemperature              si7021
     00008EE3  A$si70217021$166                   si7021
     00008EE3  C$si7021.c$38$1_0$646              si7021
     00008EE5  A$si70217021$167                   si7021
     00008EE6  A$si70217021$168                   si7021
     00008EE7  A$si70217021$169                   si7021
     00008EE8  A$si70217021$170                   si7021
     00008EE9  A$si70217021$171                   si7021
     00008EEB  A$si70217021$172                   si7021
     00008EED  A$si70217021$173                   si7021
     00008EF0  A$si70217021$174                   si7021
     00008EF2  A$si70217021$177                   si7021
     00008EF2  C$si7021.c$39$1_0$646              si7021
     00008EF4  A$si70217021$178                   si7021
     00008EF6  A$si70217021$179                   si7021
ASxxxx Linker V03.00 + NoICE + sdld,  page 51.
Hexadecimal  [32-Bits]

Area                                    Addr        Size        Decimal Bytes (Attributes)
--------------------------------        ----        ----        ------- ----- ------------
CODE                                00008306    000019D2 =        6610. bytes (REL,CON)

      Value  Global                              Global Defined In Module
      -----  --------------------------------   ------------------------
     00008EF8  A$si70217021$180                   si7021
     00008EFA  A$si70217021$181                   si7021
     00008EFB  A$si70217021$182                   si7021
     00008EFC  A$si70217021$183                   si7021
     00008EFF  A$si70217021$184                   si7021
     00008F01  A$si70217021$187                   si7021
     00008F01  C$si7021.c$41$1_0$646              si7021
     00008F02  A$si70217021$188                   si7021
     00008F04  A$si70217021$189                   si7021
     00008F06  A$si70217021$190                   si7021
     00008F08  A$si70217021$191                   si7021
     00008F09  A$si70217021$192                   si7021
     00008F0A  A$si70217021$193                   si7021
     00008F0D  A$si70217021$194                   si7021
     00008F0F  A$si70217021$195                   si7021
     00008F11  A$si70217021$196                   si7021
     00008F13  A$si70217021$197                   si7021
     00008F15  A$si70217021$198                   si7021
     00008F17  A$si70217021$199                   si7021
     00008F18  A$si70217021$200                   si7021
     00008F1A  A$si70217021$201                   si7021
     00008F1D  A$si70217021$202                   si7021
     00008F1F  A$si70217021$203                   si7021
     00008F22  A$si70217021$206                   si7021
     00008F24  A$si70217021$209                   si7021
     00008F24  C$si7021.c$42$1_0$646              si7021
     00008F24  XG$Si7021GetTemperature$0$0        si7021
     00008F25  A$bh17501750$60                    bh1750
     00008F25  C$bh1750.c$11$0_0$639              bh1750
     00008F25  G$Bh1750Init$0$0                   bh1750
     00008F25  _Bh1750Init                        bh1750
     00008F26  A$bh17501750$63                    bh1750
     00008F26  C$bh1750.c$14$1_0$639              bh1750
     00008F28  A$bh17501750$66                    bh1750
     00008F28  C$bh1750.c$15$1_0$639              bh1750
     00008F2A  A$bh17501750$67                    bh1750
     00008F2B  A$bh17501750$68                    bh1750
     00008F2C  A$bh17501750$69                    bh1750
     00008F2D  A$bh17501750$70                    bh1750
     00008F2E  A$bh17501750$71                    bh1750
     00008F30  A$bh17501750$72                    bh1750
     00008F33  A$bh17501750$73                    bh1750
     00008F35  A$bh17501750$76                    bh1750
     00008F37  A$bh17501750$79                    bh1750
     00008F37  C$bh1750.c$16$1_0$639              bh1750
     00008F37  XG$Bh1750Init$0$0                  bh1750
     00008F38  A$bh17501750$87                    bh1750
     00008F38  C$bh1750.c$19$1_0$641              bh1750
     00008F38  G$Bh1750Kick$0$0                   bh1750
     00008F38  _Bh1750Kick                        bh1750
     00008F39  A$bh17501750$90                    bh1750
ASxxxx Linker V03.00 + NoICE + sdld,  page 52.
Hexadecimal  [32-Bits]

Area                                    Addr        Size        Decimal Bytes (Attributes)
--------------------------------        ----        ----        ------- ----- ------------
CODE                                00008306    000019D2 =        6610. bytes (REL,CON)

      Value  Global                              Global Defined In Module
      -----  --------------------------------   ------------------------
     00008F39  C$bh1750.c$22$1_0$641              bh1750
     00008F3A  A$bh17501750$91                    bh1750
     00008F3B  A$bh17501750$92                    bh1750
     00008F3D  A$bh17501750$93                    bh1750
     00008F3E  A$bh17501750$96                    bh1750
     00008F3E  C$bh1750.c$23$1_0$641              bh1750
     00008F40  A$bh17501750$97                    bh1750
     00008F41  A$bh17501750$98                    bh1750
     00008F43  A$bh17501750$99                    bh1750
     00008F46  A$bh17501750$100                   bh1750
     00008F48  A$bh17501750$103                   bh1750
     00008F49  A$bh17501750$106                   bh1750
     00008F49  C$bh1750.c$24$1_0$641              bh1750
     00008F49  XG$Bh1750Kick$0$0                  bh1750
     00008F4A  A$bh17501750$114                   bh1750
     00008F4A  C$bh1750.c$26$1_0$643              bh1750
     00008F4A  G$Bh1750GetIlluminance$0$0         bh1750
     00008F4A  _Bh1750GetIlluminance              bh1750
     00008F4C  A$bh17501750$117                   bh1750
     00008F4C  C$bh1750.c$32$1_0$643              bh1750
     00008F4E  A$bh17501750$118                   bh1750
     00008F4F  A$bh17501750$119                   bh1750
     00008F50  A$bh17501750$120                   bh1750
     00008F51  A$bh17501750$121                   bh1750
     00008F52  A$bh17501750$122                   bh1750
     00008F54  A$bh17501750$123                   bh1750
     00008F57  A$bh17501750$124                   bh1750
     00008F59  A$bh17501750$127                   bh1750
     00008F59  C$bh1750.c$33$1_0$643              bh1750
     00008F5A  A$bh17501750$128                   bh1750
     00008F5C  A$bh17501750$131                   bh1750
     00008F5C  C$bh1750.c$35$2_0$644              bh1750
     00008F5E  A$bh17501750$132                   bh1750
     00008F60  A$bh17501750$133                   bh1750
     00008F62  A$bh17501750$134                   bh1750
     00008F64  A$bh17501750$135                   bh1750
     00008F65  A$bh17501750$136                   bh1750
     00008F66  A$bh17501750$137                   bh1750
     00008F69  A$bh17501750$138                   bh1750
     00008F6B  A$bh17501750$141                   bh1750
     00008F6B  C$bh1750.c$36$1_0$643              bh1750
     00008F6C  A$bh17501750$142                   bh1750
     00008F6E  A$bh17501750$143                   bh1750
     00008F70  A$bh17501750$144                   bh1750
     00008F71  A$bh17501750$145                   bh1750
     00008F72  A$bh17501750$146                   bh1750
     00008F74  A$bh17501750$147                   bh1750
     00008F77  A$bh17501750$148                   bh1750
     00008F79  A$bh17501750$151                   bh1750
     00008F79  C$bh1750.c$37$1_0$643              bh1750
     00008F7B  A$bh17501750$152                   bh1750
ASxxxx Linker V03.00 + NoICE + sdld,  page 53.
Hexadecimal  [32-Bits]

Area                                    Addr        Size        Decimal Bytes (Attributes)
--------------------------------        ----        ----        ------- ----- ------------
CODE                                00008306    000019D2 =        6610. bytes (REL,CON)

      Value  Global                              Global Defined In Module
      -----  --------------------------------   ------------------------
     00008F7D  A$bh17501750$153                   bh1750
     00008F7F  A$bh17501750$154                   bh1750
     00008F81  A$bh17501750$155                   bh1750
     00008F82  A$bh17501750$156                   bh1750
     00008F84  A$bh17501750$157                   bh1750
     00008F87  A$bh17501750$158                   bh1750
     00008F89  A$bh17501750$159                   bh1750
     00008F8B  A$bh17501750$160                   bh1750
     00008F8D  A$bh17501750$164                   bh1750
     00008F8D  C$bh1750.c$41$2_0$645              bh1750
     00008F8E  A$bh17501750$165                   bh1750
     00008F90  A$bh17501750$166                   bh1750
     00008F92  A$bh17501750$172                   bh1750
     00008F92  C$bh1750.c$44$1_0$643              bh1750
     00008F94  A$bh17501750$175                   bh1750
     00008F94  C$bh1750.c$45$1_0$643              bh1750
     00008F94  XG$Bh1750GetIlluminance$0$0        bh1750
     00008F95  A$stm8l15x_itx_it$84               stm8l15x_it
     00008F95  C$stm8l15x_it.c$67$0_0$627         stm8l15x_it
     00008F95  C$stm8l15x_it.c$72$0_0$627         stm8l15x_it
     00008F95  G$TRAP_IRQHandler$0$0              stm8l15x_it
     00008F95  XG$TRAP_IRQHandler$0$0             stm8l15x_it
     00008F95  _TRAP_IRQHandler                   stm8l15x_it
     00008F96  A$stm8l15x_itx_it$96               stm8l15x_it
     00008F96  C$stm8l15x_it.c$78$0_0$630         stm8l15x_it
     00008F96  C$stm8l15x_it.c$83$0_0$630         stm8l15x_it
     00008F96  G$FLASH_IRQHandler$0$0             stm8l15x_it
     00008F96  XG$FLASH_IRQHandler$0$0            stm8l15x_it
     00008F96  _FLASH_IRQHandler                  stm8l15x_it
     00008F97  A$stm8l15x_itx_it$108              stm8l15x_it
     00008F97  C$stm8l15x_it.c$89$0_0$633         stm8l15x_it
     00008F97  C$stm8l15x_it.c$94$0_0$633         stm8l15x_it
     00008F97  G$DMA1_CHANNEL0_1_IRQHandler$0$0   stm8l15x_it
     00008F97  XG$DMA1_CHANNEL0_1_IRQHandler$0$   stm8l15x_it
     00008F97  _DMA1_CHANNEL0_1_IRQHandler        stm8l15x_it
     00008F98  A$stm8l15x_itx_it$120              stm8l15x_it
     00008F98  C$stm8l15x_it.c$100$0_0$636        stm8l15x_it
     00008F98  C$stm8l15x_it.c$105$0_0$636        stm8l15x_it
     00008F98  G$DMA1_CHANNEL2_3_IRQHandler$0$0   stm8l15x_it
     00008F98  XG$DMA1_CHANNEL2_3_IRQHandler$0$   stm8l15x_it
     00008F98  _DMA1_CHANNEL2_3_IRQHandler        stm8l15x_it
     00008F99  A$stm8l15x_itx_it$132              stm8l15x_it
     00008F99  C$stm8l15x_it.c$122$0_0$639        stm8l15x_it
     00008F99  C$stm8l15x_it.c$127$0_0$639        stm8l15x_it
     00008F99  G$EXTIE_F_PVD_IRQHandler$0$0       stm8l15x_it
     00008F99  XG$EXTIE_F_PVD_IRQHandler$0$0      stm8l15x_it
     00008F99  _EXTIE_F_PVD_IRQHandler            stm8l15x_it
     00008F9A  A$stm8l15x_itx_it$144              stm8l15x_it
     00008F9A  C$stm8l15x_it.c$134$0_0$642        stm8l15x_it
     00008F9A  C$stm8l15x_it.c$139$0_0$642        stm8l15x_it
     00008F9A  G$EXTIB_G_IRQHandler$0$0           stm8l15x_it
ASxxxx Linker V03.00 + NoICE + sdld,  page 54.
Hexadecimal  [32-Bits]

Area                                    Addr        Size        Decimal Bytes (Attributes)
--------------------------------        ----        ----        ------- ----- ------------
CODE                                00008306    000019D2 =        6610. bytes (REL,CON)

      Value  Global                              Global Defined In Module
      -----  --------------------------------   ------------------------
     00008F9A  XG$EXTIB_G_IRQHandler$0$0          stm8l15x_it
     00008F9A  _EXTIB_G_IRQHandler                stm8l15x_it
     00008F9B  A$stm8l15x_itx_it$156              stm8l15x_it
     00008F9B  C$stm8l15x_it.c$146$0_0$645        stm8l15x_it
     00008F9B  C$stm8l15x_it.c$151$0_0$645        stm8l15x_it
     00008F9B  G$EXTID_H_IRQHandler$0$0           stm8l15x_it
     00008F9B  XG$EXTID_H_IRQHandler$0$0          stm8l15x_it
     00008F9B  _EXTID_H_IRQHandler                stm8l15x_it
     00008F9C  A$stm8l15x_itx_it$168              stm8l15x_it
     00008F9C  C$stm8l15x_it.c$170$0_0$648        stm8l15x_it
     00008F9C  C$stm8l15x_it.c$175$0_0$648        stm8l15x_it
     00008F9C  G$EXTI1_IRQHandler$0$0             stm8l15x_it
     00008F9C  XG$EXTI1_IRQHandler$0$0            stm8l15x_it
     00008F9C  _EXTI1_IRQHandler                  stm8l15x_it
     00008F9D  A$stm8l15x_itx_it$180              stm8l15x_it
     00008F9D  C$stm8l15x_it.c$182$0_0$651        stm8l15x_it
     00008F9D  C$stm8l15x_it.c$187$0_0$651        stm8l15x_it
     00008F9D  G$EXTI2_IRQHandler$0$0             stm8l15x_it
     00008F9D  XG$EXTI2_IRQHandler$0$0            stm8l15x_it
     00008F9D  _EXTI2_IRQHandler                  stm8l15x_it
     00008F9E  A$stm8l15x_itx_it$192              stm8l15x_it
     00008F9E  C$stm8l15x_it.c$194$0_0$654        stm8l15x_it
     00008F9E  C$stm8l15x_it.c$199$0_0$654        stm8l15x_it
     00008F9E  G$EXTI3_IRQHandler$0$0             stm8l15x_it
     00008F9E  XG$EXTI3_IRQHandler$0$0            stm8l15x_it
     00008F9E  _EXTI3_IRQHandler                  stm8l15x_it
     00008F9F  A$stm8l15x_itx_it$204              stm8l15x_it
     00008F9F  C$stm8l15x_it.c$206$0_0$657        stm8l15x_it
     00008F9F  C$stm8l15x_it.c$211$0_0$657        stm8l15x_it
     00008F9F  G$EXTI4_IRQHandler$0$0             stm8l15x_it
     00008F9F  XG$EXTI4_IRQHandler$0$0            stm8l15x_it
     00008F9F  _EXTI4_IRQHandler                  stm8l15x_it
     00008FA0  A$stm8l15x_itx_it$216              stm8l15x_it
     00008FA0  C$stm8l15x_it.c$218$0_0$660        stm8l15x_it
     00008FA0  C$stm8l15x_it.c$223$0_0$660        stm8l15x_it
     00008FA0  G$EXTI5_IRQHandler$0$0             stm8l15x_it
     00008FA0  XG$EXTI5_IRQHandler$0$0            stm8l15x_it
     00008FA0  _EXTI5_IRQHandler                  stm8l15x_it
     00008FA1  A$stm8l15x_itx_it$228              stm8l15x_it
     00008FA1  C$stm8l15x_it.c$230$0_0$663        stm8l15x_it
     00008FA1  C$stm8l15x_it.c$235$0_0$663        stm8l15x_it
     00008FA1  G$EXTI6_IRQHandler$0$0             stm8l15x_it
     00008FA1  XG$EXTI6_IRQHandler$0$0            stm8l15x_it
     00008FA1  _EXTI6_IRQHandler                  stm8l15x_it
     00008FA2  A$stm8l15x_itx_it$240              stm8l15x_it
     00008FA2  C$stm8l15x_it.c$242$0_0$666        stm8l15x_it
     00008FA2  C$stm8l15x_it.c$247$0_0$666        stm8l15x_it
     00008FA2  G$EXTI7_IRQHandler$0$0             stm8l15x_it
     00008FA2  XG$EXTI7_IRQHandler$0$0            stm8l15x_it
     00008FA2  _EXTI7_IRQHandler                  stm8l15x_it
     00008FA3  A$stm8l15x_itx_it$252              stm8l15x_it
ASxxxx Linker V03.00 + NoICE + sdld,  page 55.
Hexadecimal  [32-Bits]

Area                                    Addr        Size        Decimal Bytes (Attributes)
--------------------------------        ----        ----        ------- ----- ------------
CODE                                00008306    000019D2 =        6610. bytes (REL,CON)

      Value  Global                              Global Defined In Module
      -----  --------------------------------   ------------------------
     00008FA3  C$stm8l15x_it.c$253$0_0$669        stm8l15x_it
     00008FA3  C$stm8l15x_it.c$258$0_0$669        stm8l15x_it
     00008FA3  G$LCD_AES_IRQHandler$0$0           stm8l15x_it
     00008FA3  XG$LCD_AES_IRQHandler$0$0          stm8l15x_it
     00008FA3  _LCD_AES_IRQHandler                stm8l15x_it
     00008FA4  A$stm8l15x_itx_it$264              stm8l15x_it
     00008FA4  C$stm8l15x_it.c$264$0_0$672        stm8l15x_it
     00008FA4  C$stm8l15x_it.c$269$0_0$672        stm8l15x_it
     00008FA4  G$SWITCH_CSS_BREAK_DAC_IRQHandle   stm8l15x_it
     00008FA4  XG$SWITCH_CSS_BREAK_DAC_IRQHandl   stm8l15x_it
     00008FA4  _SWITCH_CSS_BREAK_DAC_IRQHandler   stm8l15x_it
     00008FA5  A$stm8l15x_itx_it$276              stm8l15x_it
     00008FA5  C$stm8l15x_it.c$288$0_0$675        stm8l15x_it
     00008FA5  C$stm8l15x_it.c$293$0_0$675        stm8l15x_it
     00008FA5  G$TIM2_UPD_OVF_TRG_BRK_USART2_TX   stm8l15x_it
     00008FA5  XG$TIM2_UPD_OVF_TRG_BRK_USART2_T   stm8l15x_it
     00008FA5  _TIM2_UPD_OVF_TRG_BRK_USART2_TX_   stm8l15x_it
     00008FA6  A$stm8l15x_itx_it$288              stm8l15x_it
     00008FA6  C$stm8l15x_it.c$300$0_0$678        stm8l15x_it
     00008FA6  C$stm8l15x_it.c$305$0_0$678        stm8l15x_it
     00008FA6  G$TIM2_CC_USART2_RX_IRQHandler$0   stm8l15x_it
     00008FA6  XG$TIM2_CC_USART2_RX_IRQHandler$   stm8l15x_it
     00008FA6  _TIM2_CC_USART2_RX_IRQHandler      stm8l15x_it
     00008FA7  A$stm8l15x_itx_it$300              stm8l15x_it
     00008FA7  C$stm8l15x_it.c$313$0_0$681        stm8l15x_it
     00008FA7  C$stm8l15x_it.c$318$0_0$681        stm8l15x_it
     00008FA7  G$TIM3_UPD_OVF_TRG_BRK_USART3_TX   stm8l15x_it
     00008FA7  XG$TIM3_UPD_OVF_TRG_BRK_USART3_T   stm8l15x_it
     00008FA7  _TIM3_UPD_OVF_TRG_BRK_USART3_TX_   stm8l15x_it
     00008FA8  A$stm8l15x_itx_it$312              stm8l15x_it
     00008FA8  C$stm8l15x_it.c$324$0_0$684        stm8l15x_it
     00008FA8  C$stm8l15x_it.c$329$0_0$684        stm8l15x_it
     00008FA8  G$TIM3_CC_USART3_RX_IRQHandler$0   stm8l15x_it
     00008FA8  XG$TIM3_CC_USART3_RX_IRQHandler$   stm8l15x_it
     00008FA8  _TIM3_CC_USART3_RX_IRQHandler      stm8l15x_it
     00008FA9  A$stm8l15x_itx_it$324              stm8l15x_it
     00008FA9  C$stm8l15x_it.c$335$0_0$687        stm8l15x_it
     00008FA9  C$stm8l15x_it.c$340$0_0$687        stm8l15x_it
     00008FA9  G$TIM1_UPD_OVF_TRG_COM_IRQHandle   stm8l15x_it
     00008FA9  XG$TIM1_UPD_OVF_TRG_COM_IRQHandl   stm8l15x_it
     00008FA9  _TIM1_UPD_OVF_TRG_COM_IRQHandler   stm8l15x_it
     00008FAA  A$stm8l15x_itx_it$336              stm8l15x_it
     00008FAA  C$stm8l15x_it.c$346$0_0$690        stm8l15x_it
     00008FAA  C$stm8l15x_it.c$351$0_0$690        stm8l15x_it
     00008FAA  G$TIM1_CC_IRQHandler$0$0           stm8l15x_it
     00008FAA  XG$TIM1_CC_IRQHandler$0$0          stm8l15x_it
     00008FAA  _TIM1_CC_IRQHandler                stm8l15x_it
     00008FAB  A$stm8l15x_itx_it$348              stm8l15x_it
     00008FAB  C$stm8l15x_it.c$369$0_0$693        stm8l15x_it
     00008FAB  C$stm8l15x_it.c$374$0_0$693        stm8l15x_it
     00008FAB  G$SPI1_IRQHandler$0$0              stm8l15x_it
ASxxxx Linker V03.00 + NoICE + sdld,  page 56.
Hexadecimal  [32-Bits]

Area                                    Addr        Size        Decimal Bytes (Attributes)
--------------------------------        ----        ----        ------- ----- ------------
CODE                                00008306    000019D2 =        6610. bytes (REL,CON)

      Value  Global                              Global Defined In Module
      -----  --------------------------------   ------------------------
     00008FAB  XG$SPI1_IRQHandler$0$0             stm8l15x_it
     00008FAB  _SPI1_IRQHandler                   stm8l15x_it
     00008FAC  A$stm8l15x_itx_it$360              stm8l15x_it
     00008FAC  C$stm8l15x_it.c$381$0_0$696        stm8l15x_it
     00008FAC  C$stm8l15x_it.c$386$0_0$696        stm8l15x_it
     00008FAC  G$USART1_TX_TIM5_UPD_OVF_TRG_BRK   stm8l15x_it
     00008FAC  XG$USART1_TX_TIM5_UPD_OVF_TRG_BR   stm8l15x_it
     00008FAC  _USART1_TX_TIM5_UPD_OVF_TRG_BRK_   stm8l15x_it
     00008FAD  A$stm8l15x_itx_it$372              stm8l15x_it
     00008FAD  C$stm8l15x_it.c$393$0_0$699        stm8l15x_it
     00008FAD  C$stm8l15x_it.c$398$0_0$699        stm8l15x_it
     00008FAD  G$USART1_RX_TIM5_CC_IRQHandler$0   stm8l15x_it
     00008FAD  XG$USART1_RX_TIM5_CC_IRQHandler$   stm8l15x_it
     00008FAD  _USART1_RX_TIM5_CC_IRQHandler      stm8l15x_it
     00008FAE  A$applicationtion$109              application
     00008FAE  C$application.c$32$0_0$685         application
     00008FAE  C$application.c$36$1_0$685         application
     00008FAE  G$AppInit$0$0                      application
     00008FAE  _AppInit                           application
     00008FB0  A$applicationtion$110              application
     00008FB2  A$applicationtion$111              application
     00008FB5  A$applicationtion$112              application
     00008FB6  A$applicationtion$115              application
     00008FB6  C$application.c$37$1_0$685         application
     00008FBA  A$applicationtion$116              application
     00008FBC  A$applicationtion$117              application
     00008FBE  A$applicationtion$118              application
     00008FC1  A$applicationtion$119              application
     00008FC2  A$applicationtion$120              application
     00008FC6  A$applicationtion$123              application
     00008FC6  C$application.c$38$1_0$685         application
     00008FC8  A$applicationtion$124              application
     00008FCA  A$applicationtion$125              application
     00008FCD  A$applicationtion$126              application
     00008FCE  A$applicationtion$129              application
     00008FCE  C$application.c$39$1_0$685         application
     00008FD2  A$applicationtion$130              application
     00008FD4  A$applicationtion$131              application
     00008FD6  A$applicationtion$132              application
     00008FD9  A$applicationtion$133              application
     00008FDA  A$applicationtion$134              application
     00008FDE  A$applicationtion$137              application
     00008FDE  C$application.c$40$1_0$685         application
     00008FE0  A$applicationtion$138              application
     00008FE2  A$applicationtion$139              application
     00008FE5  A$applicationtion$140              application
     00008FE6  A$applicationtion$143              application
     00008FE6  C$application.c$41$1_0$685         application
     00008FEA  A$applicationtion$144              application
     00008FEC  A$applicationtion$145              application
     00008FEE  A$applicationtion$146              application
ASxxxx Linker V03.00 + NoICE + sdld,  page 57.
Hexadecimal  [32-Bits]

Area                                    Addr        Size        Decimal Bytes (Attributes)
--------------------------------        ----        ----        ------- ----- ------------
CODE                                00008306    000019D2 =        6610. bytes (REL,CON)

      Value  Global                              Global Defined In Module
      -----  --------------------------------   ------------------------
     00008FF1  A$applicationtion$147              application
     00008FF2  A$applicationtion$148              application
     00008FF6  A$applicationtion$151              application
     00008FF6  C$application.c$43$1_0$685         application
     00008FF9  A$applicationtion$154              application
     00008FF9  C$application.c$44$1_0$685         application
     00008FFC  A$applicationtion$157              application
     00008FFC  C$application.c$45$1_0$685         application
     00008FFF  A$applicationtion$160              application
     00008FFF  C$application.c$46$1_0$685         application
     00009002  A$applicationtion$163              application
     00009002  C$application.c$48$1_0$685         application
     00009005  A$applicationtion$164              application
     00009006  A$applicationtion$165              application
     00009007  A$applicationtion$166              application
     00009008  A$applicationtion$167              application
     0000900A  A$applicationtion$168              application
     0000900C  A$applicationtion$169              application
     0000900F  A$applicationtion$170              application
     00009011  A$applicationtion$173              application
     00009011  C$application.c$49$1_0$685         application
     00009014  A$applicationtion$174              application
     00009015  A$applicationtion$175              application
     00009016  A$applicationtion$176              application
     00009017  A$applicationtion$177              application
     00009019  A$applicationtion$178              application
     0000901B  A$applicationtion$179              application
     0000901E  A$applicationtion$180              application
     00009020  A$applicationtion$183              application
     00009020  C$application.c$50$1_0$685         application
     00009023  A$applicationtion$184              application
     00009024  A$applicationtion$185              application
     00009025  A$applicationtion$186              application
     00009026  A$applicationtion$187              application
     00009028  A$applicationtion$188              application
     0000902A  A$applicationtion$189              application
     0000902D  A$applicationtion$190              application
     0000902F  A$applicationtion$193              application
     0000902F  C$application.c$51$1_0$685         application
     00009032  A$applicationtion$194              application
     00009033  A$applicationtion$195              application
     00009034  A$applicationtion$196              application
     00009035  A$applicationtion$197              application
     00009037  A$applicationtion$198              application
     00009039  A$applicationtion$199              application
     0000903C  A$applicationtion$200              application
     0000903E  A$applicationtion$203              application
     0000903E  C$application.c$52$1_0$685         application
     00009041  A$applicationtion$204              application
     00009042  A$applicationtion$205              application
     00009043  A$applicationtion$206              application
ASxxxx Linker V03.00 + NoICE + sdld,  page 58.
Hexadecimal  [32-Bits]

Area                                    Addr        Size        Decimal Bytes (Attributes)
--------------------------------        ----        ----        ------- ----- ------------
CODE                                00008306    000019D2 =        6610. bytes (REL,CON)

      Value  Global                              Global Defined In Module
      -----  --------------------------------   ------------------------
     00009044  A$applicationtion$207              application
     00009046  A$applicationtion$208              application
     00009048  A$applicationtion$209              application
     0000904B  A$applicationtion$210              application
     0000904D  A$applicationtion$213              application
     0000904D  C$application.c$54$1_0$685         application
     00009050  A$applicationtion$216              application
     00009050  C$application.c$55$1_0$685         application
     00009051  A$applicationtion$217              application
     00009053  A$applicationtion$220              application
     00009053  C$application.c$57$2_0$686         application
     00009057  A$applicationtion$223              application
     00009057  C$application.c$58$2_0$686         application
     00009059  A$applicationtion$224              application
     0000905B  A$applicationtion$225              application
     0000905E  A$applicationtion$226              application
     0000905F  A$applicationtion$230              application
     0000905F  C$application.c$62$1_0$685         application
     00009063  A$applicationtion$235              application
     00009063  C$application.c$68$1_0$685         application
     00009063  XG$AppInit$0$0                     application
     00009064  A$applicationtion$243              application
     00009064  C$application.c$70$1_0$688         application
     00009064  G$AppLoop$0$0                      application
     00009064  _AppLoop                           application
     00009065  A$applicationtion$246              application
     00009065  C$application.c$74$1_0$688         application
     00009068  A$applicationtion$247              application
     0000906A  A$applicationtion$248              application
     0000906C  A$applicationtion$249              application
     0000906F  A$applicationtion$251              application
     00009070  A$applicationtion$252              application
     00009073  A$applicationtion$253              application
     00009074  A$applicationtion$254              application
     00009075  A$applicationtion$255              application
     00009078  A$applicationtion$256              application
     00009095  A$applicationtion$277              application
     00009095  C$application.c$76$2_0$689         application
     00009095  C$application.c$77$2_0$689         application
     00009099  A$applicationtion$280              application
     00009099  C$application.c$78$2_0$689         application
     0000909C  A$applicationtion$286              application
     0000909C  C$application.c$80$2_0$689         application
     0000909C  C$application.c$81$2_0$689         application
     000090A0  A$applicationtion$289              application
     000090A0  C$application.c$83$2_0$689         application
     000090A2  A$applicationtion$290              application
     000090A4  A$applicationtion$291              application
     000090A7  A$applicationtion$292              application
     000090A8  A$applicationtion$295              application
     000090A8  C$application.c$84$2_0$689         application
ASxxxx Linker V03.00 + NoICE + sdld,  page 59.
Hexadecimal  [32-Bits]

Area                                    Addr        Size        Decimal Bytes (Attributes)
--------------------------------        ----        ----        ------- ----- ------------
CODE                                00008306    000019D2 =        6610. bytes (REL,CON)

      Value  Global                              Global Defined In Module
      -----  --------------------------------   ------------------------
     000090AC  A$applicationtion$298              application
     000090AC  C$application.c$85$2_0$689         application
     000090AD  A$applicationtion$299              application
     000090B0  A$applicationtion$302              application
     000090B0  C$application.c$86$2_0$689         application
     000090B3  A$applicationtion$308              application
     000090B3  C$application.c$91$2_0$689         application
     000090B3  C$application.c$92$2_0$689         application
     000090B7  A$applicationtion$311              application
     000090B7  C$application.c$93$2_0$689         application
     000090BB  A$applicationtion$314              application
     000090BB  C$application.c$94$2_0$689         application
     000090BD  A$applicationtion$315              application
     000090BF  A$applicationtion$316              application
     000090C2  A$applicationtion$317              application
     000090C3  A$applicationtion$320              application
     000090C3  C$application.c$96$2_0$689         application
     000090C6  A$applicationtion$321              application
     000090C9  A$applicationtion$324              application
     000090C9  C$application.c$99$2_0$689         application
     000090CA  A$applicationtion$325              application
     000090CD  A$applicationtion$326              application
     000090CE  A$applicationtion$327              application
     000090CF  A$applicationtion$328              application
     000090D1  A$applicationtion$329              application
     000090D3  A$applicationtion$330              application
     000090D6  A$applicationtion$331              application
     000090D8  A$applicationtion$334              application
     000090D8  C$application.c$100$2_0$689        application
     000090DB  A$applicationtion$335              application
     000090DC  A$applicationtion$336              application
     000090DE  A$applicationtion$337              application
     000090E0  A$applicationtion$338              application
     000090E3  A$applicationtion$339              application
     000090E5  A$applicationtion$342              application
     000090E5  C$application.c$101$2_0$689        application
     000090E8  A$applicationtion$343              application
     000090E9  A$applicationtion$344              application
     000090EB  A$applicationtion$345              application
     000090ED  A$applicationtion$346              application
     000090F0  A$applicationtion$347              application
     000090F2  A$applicationtion$350              application
     000090F2  C$application.c$102$2_0$689        application
     000090F5  A$applicationtion$351              application
     000090F6  A$applicationtion$352              application
     000090F8  A$applicationtion$353              application
     000090FA  A$applicationtion$354              application
     000090FD  A$applicationtion$355              application
     000090FF  A$applicationtion$358              application
     000090FF  C$application.c$103$2_0$689        application
     00009102  A$applicationtion$359              application
ASxxxx Linker V03.00 + NoICE + sdld,  page 60.
Hexadecimal  [32-Bits]

Area                                    Addr        Size        Decimal Bytes (Attributes)
--------------------------------        ----        ----        ------- ----- ------------
CODE                                00008306    000019D2 =        6610. bytes (REL,CON)

      Value  Global                              Global Defined In Module
      -----  --------------------------------   ------------------------
     00009103  A$applicationtion$360              application
     00009105  A$applicationtion$361              application
     00009107  A$applicationtion$362              application
     0000910A  A$applicationtion$363              application
     0000910C  A$applicationtion$366              application
     0000910C  C$application.c$106$2_0$689        application
     00009110  A$applicationtion$369              application
     00009110  C$application.c$107$2_0$689        application
     00009111  A$applicationtion$370              application
     00009114  A$applicationtion$373              application
     00009114  C$application.c$108$2_0$689        application
     00009117  A$applicationtion$379              application
     00009117  C$application.c$113$2_0$689        application
     00009117  C$application.c$115$2_0$689        application
     00009119  A$applicationtion$380              application
     0000911B  A$applicationtion$381              application
     0000911E  A$applicationtion$382              application
     0000911F  A$applicationtion$385              application
     0000911F  C$application.c$116$2_0$689        application
     00009122  A$applicationtion$388              application
     00009122  C$application.c$117$2_0$689        application
     00009126  A$applicationtion$391              application
     00009126  C$application.c$118$2_0$689        application
     00009127  A$applicationtion$392              application
     0000912A  A$applicationtion$395              application
     0000912A  C$application.c$124$2_0$689        application
     0000912D  A$applicationtion$401              application
     0000912D  C$application.c$129$2_0$689        application
     0000912D  C$application.c$130$2_0$689        application
     0000912F  A$applicationtion$402              application
     00009131  A$applicationtion$403              application
     00009134  A$applicationtion$404              application
     00009135  A$applicationtion$407              application
     00009135  C$application.c$131$2_0$689        application
     00009139  A$applicationtion$410              application
     00009139  C$application.c$132$2_0$689        application
     0000913B  A$applicationtion$411              application
     0000913D  A$applicationtion$412              application
     0000913F  A$applicationtion$413              application
     00009142  A$applicationtion$414              application
     00009144  A$applicationtion$417              application
     00009144  C$application.c$133$2_0$689        application
     00009147  A$applicationtion$420              application
     00009147  C$application.c$134$2_0$689        application
     0000914B  A$applicationtion$423              application
     0000914B  C$application.c$135$2_0$689        application
     0000914C  A$applicationtion$424              application
     0000914F  A$applicationtion$427              application
     0000914F  C$application.c$136$2_0$689        application
     00009152  A$applicationtion$433              application
     00009152  C$application.c$138$2_0$689        application
ASxxxx Linker V03.00 + NoICE + sdld,  page 61.
Hexadecimal  [32-Bits]

Area                                    Addr        Size        Decimal Bytes (Attributes)
--------------------------------        ----        ----        ------- ----- ------------
CODE                                00008306    000019D2 =        6610. bytes (REL,CON)

      Value  Global                              Global Defined In Module
      -----  --------------------------------   ------------------------
     00009152  C$application.c$139$2_0$689        application
     00009156  A$applicationtion$434              application
     00009158  A$applicationtion$435              application
     0000915A  A$applicationtion$436              application
     0000915D  A$applicationtion$437              application
     0000915E  A$applicationtion$438              application
     00009162  A$applicationtion$441              application
     00009162  C$application.c$140$2_0$689        application
     00009166  A$applicationtion$442              application
     00009168  A$applicationtion$445              application
     00009168  C$application.c$142$3_0$690        application
     0000916A  A$applicationtion$446              application
     0000916C  A$applicationtion$447              application
     0000916F  A$applicationtion$448              application
     00009170  A$applicationtion$451              application
     00009170  C$application.c$143$3_0$690        application
     00009174  A$applicationtion$454              application
     00009174  C$application.c$144$3_0$690        application
     00009178  A$applicationtion$457              application
     00009178  C$application.c$145$3_0$690        application
     00009179  A$applicationtion$458              application
     0000917C  A$applicationtion$462              application
     0000917C  C$application.c$149$3_0$691        application
     0000917E  A$applicationtion$463              application
     00009180  A$applicationtion$464              application
     00009183  A$applicationtion$465              application
     00009184  A$applicationtion$468              application
     00009184  C$application.c$150$3_0$691        application
     00009187  A$applicationtion$471              application
     00009187  C$application.c$151$3_0$691        application
     0000918B  A$applicationtion$474              application
     0000918B  C$application.c$152$3_0$691        application
     0000918C  A$applicationtion$475              application
     0000918F  A$applicationtion$478              application
     0000918F  C$application.c$154$2_0$689        application
     00009192  A$applicationtion$484              application
     00009192  C$application.c$156$2_0$689        application
     00009192  C$application.c$157$2_0$689        application
     00009196  A$applicationtion$487              application
     00009196  C$application.c$158$2_0$689        application
     00009199  A$applicationtion$490              application
     00009199  C$application.c$159$2_0$689        application
     0000919A  A$applicationtion$491              application
     0000919D  A$applicationtion$494              application
     0000919D  C$application.c$160$2_0$689        application
     000091A0  A$applicationtion$500              application
     000091A0  C$application.c$165$2_0$689        application
     000091A0  C$application.c$166$2_0$689        application
     000091A2  A$applicationtion$501              application
     000091A4  A$applicationtion$502              application
     000091A6  A$applicationtion$503              application
ASxxxx Linker V03.00 + NoICE + sdld,  page 62.
Hexadecimal  [32-Bits]

Area                                    Addr        Size        Decimal Bytes (Attributes)
--------------------------------        ----        ----        ------- ----- ------------
CODE                                00008306    000019D2 =        6610. bytes (REL,CON)

      Value  Global                              Global Defined In Module
      -----  --------------------------------   ------------------------
     000091A9  A$applicationtion$504              application
     000091AB  A$applicationtion$507              application
     000091AB  C$application.c$167$2_0$689        application
     000091AE  A$applicationtion$508              application
     000091B0  A$applicationtion$509              application
     000091B3  A$applicationtion$510              application
     000091B5  A$applicationtion$511              application
     000091B7  A$applicationtion$514              application
     000091B7  C$application.c$169$3_0$692        application
     000091BB  A$applicationtion$517              application
     000091BB  C$application.c$170$3_0$692        application
     000091BC  A$applicationtion$518              application
     000091BF  A$applicationtion$522              application
     000091BF  C$application.c$174$3_0$693        application
     000091C3  A$applicationtion$525              application
     000091C3  C$application.c$176$2_0$689        application
     000091C5  A$applicationtion$531              application
     000091C5  C$application.c$181$2_0$689        application
     000091C5  C$application.c$182$2_0$689        application
     000091C7  A$applicationtion$532              application
     000091C9  A$applicationtion$533              application
     000091CC  A$applicationtion$534              application
     000091CD  A$applicationtion$537              application
     000091CD  C$application.c$183$2_0$689        application
     000091D1  A$applicationtion$540              application
     000091D1  C$application.c$184$2_0$689        application
     000091D3  A$applicationtion$546              application
     000091D3  C$application.c$186$2_0$689        application
     000091D3  C$application.c$187$2_0$689        application
     000091D7  A$applicationtion$552              application
     000091D7  C$application.c$189$1_0$688        application
     000091D8  A$applicationtion$555              application
     000091D8  C$application.c$190$1_0$688        application
     000091D8  XG$AppLoop$0$0                     application
     000091D9  A$applicationtion$565              application
     000091D9  C$application.c$192$1_0$695        application
     000091D9  C$application.c$194$1_0$695        application
     000091D9  G$AppInterruptRTC$0$0              application
     000091D9  _AppInterruptRTC                   application
     000091DD  A$applicationtion$566              application
     000091DF  A$applicationtion$569              application
     000091DF  C$application.c$196$2_0$696        application
     000091E3  A$applicationtion$570              application
     000091E5  A$applicationtion$574              application
     000091E5  C$application.c$198$1_0$695        application
     000091E8  A$applicationtion$575              application
     000091EA  A$applicationtion$576              application
     000091EC  A$applicationtion$579              application
     000091EC  C$application.c$200$2_0$697        application
     000091F0  A$applicationtion$585              application
     000091F0  C$application.c$202$1_0$695        application
ASxxxx Linker V03.00 + NoICE + sdld,  page 63.
Hexadecimal  [32-Bits]

Area                                    Addr        Size        Decimal Bytes (Attributes)
--------------------------------        ----        ----        ------- ----- ------------
CODE                                00008306    000019D2 =        6610. bytes (REL,CON)

      Value  Global                              Global Defined In Module
      -----  --------------------------------   ------------------------
     000091F0  XG$AppInterruptRTC$0$0             application
     000091F1  A$applicationtion$595              application
     000091F1  C$application.c$204$1_0$699        application
     000091F1  C$application.c$206$1_0$699        application
     000091F1  G$AppInterruptSysTick$0$0          application
     000091F1  _AppInterruptSysTick               application
     000091F5  A$applicationtion$596              application
     000091F7  A$applicationtion$599              application
     000091F7  C$application.c$208$2_0$700        application
     000091FB  A$applicationtion$602              application
     000091FB  C$application.c$209$2_0$700        application
     000091FF  A$applicationtion$603              application
     00009201  A$applicationtion$606              application
     00009201  C$application.c$211$3_0$701        application
     00009205  A$applicationtion$612              application
     00009205  C$application.c$214$1_0$699        application
     00009205  XG$AppInterruptSysTick$0$0         application
     00009206  A$applicationtion$622              application
     00009206  C$application.c$216$1_0$703        application
     00009206  C$application.c$218$1_0$703        application
     00009206  G$AppInterruptTransmit$0$0         application
     00009206  _AppInterruptTransmit              application
     00009209  A$applicationtion$623              application
     0000920B  A$applicationtion$624              application
     0000920D  A$applicationtion$627              application
     0000920D  C$application.c$220$2_0$704        application
     00009211  A$applicationtion$628              application
     00009213  A$applicationtion$632              application
     00009213  C$application.c$222$1_0$703        application
     00009216  A$applicationtion$633              application
     00009218  A$applicationtion$634              application
     0000921A  A$applicationtion$637              application
     0000921A  C$application.c$224$2_0$705        application
     0000921E  A$applicationtion$643              application
     0000921E  C$application.c$226$1_0$703        application
     0000921E  XG$AppInterruptTransmit$0$0        application
     0000921F  A$applicationtion$653              application
     0000921F  C$application.c$228$1_0$707        application
     0000921F  C$application.c$230$1_0$707        application
     0000921F  G$AppInterruptReceive$0$0          application
     0000921F  _AppInterruptReceive               application
     00009222  A$applicationtion$654              application
     00009224  A$applicationtion$655              application
     00009226  A$applicationtion$658              application
     00009226  C$application.c$232$2_0$708        application
     0000922A  A$applicationtion$659              application
     0000922C  A$applicationtion$663              application
     0000922C  C$application.c$234$1_0$707        application
     0000922F  A$applicationtion$664              application
     00009231  A$applicationtion$665              application
     00009233  A$applicationtion$668              application
ASxxxx Linker V03.00 + NoICE + sdld,  page 64.
Hexadecimal  [32-Bits]

Area                                    Addr        Size        Decimal Bytes (Attributes)
--------------------------------        ----        ----        ------- ----- ------------
CODE                                00008306    000019D2 =        6610. bytes (REL,CON)

      Value  Global                              Global Defined In Module
      -----  --------------------------------   ------------------------
     00009233  C$application.c$236$2_0$709        application
     00009237  A$applicationtion$674              application
     00009237  C$application.c$238$1_0$707        application
     00009237  XG$AppInterruptReceive$0$0         application
     00009238  A$applicationtion$684              application
     00009238  C$application.c$240$1_0$711        application
     00009238  C$application.c$242$1_0$711        application
     00009238  G$AppInterruptSyncWord$0$0         application
     00009238  _AppInterruptSyncWord              application
     0000923B  A$applicationtion$685              application
     0000923E  A$applicationtion$690              application
     0000923E  C$application.c$243$1_0$711        application
     0000923E  XG$AppInterruptSyncWord$0$0        application
     0000923F  A$applicationtion$698              application
     0000923F  C$application.c$245$1_0$713        application
     0000923F  Fapplication$PrintUInt16$0$0       application
     00009241  A$applicationtion$701              application
     00009241  C$application.c$250$1_0$713        application
     00009243  A$applicationtion$703              application
     00009244  A$applicationtion$704              application
     00009246  A$applicationtion$707              application
     00009246  C$application.c$252$2_0$714        application
     00009247  A$applicationtion$708              application
     00009249  A$applicationtion$709              application
     0000924B  A$applicationtion$710              application
     0000924C  A$applicationtion$711              application
     0000924E  A$applicationtion$712              application
     00009251  A$applicationtion$713              application
     00009252  A$applicationtion$714              application
     00009253  A$applicationtion$715              application
     00009255  A$applicationtion$719              application
     00009255  C$application.c$255$1_0$713        application
     00009256  A$applicationtion$720              application
     00009259  A$applicationtion$723              application
     00009259  C$application.c$256$1_0$713        application
     0000925A  A$applicationtion$729              application
     0000925A  C$application.c$257$1_0$713        application
     0000925A  C$application.c$259$2_0$715        application
     0000925B  A$applicationtion$730              application
     0000925D  A$applicationtion$731              application
     0000925F  A$applicationtion$732              application
     00009260  A$applicationtion$733              application
     00009262  A$applicationtion$734              application
     00009266  A$applicationtion$735              application
     00009267  A$applicationtion$736              application
     00009269  A$applicationtion$737              application
     0000926A  A$applicationtion$738              application
     0000926C  A$applicationtion$739              application
     0000926D  A$applicationtion$742              application
     0000926D  C$application.c$260$2_0$715        application
     0000926E  A$applicationtion$743              application
ASxxxx Linker V03.00 + NoICE + sdld,  page 65.
Hexadecimal  [32-Bits]

Area                                    Addr        Size        Decimal Bytes (Attributes)
--------------------------------        ----        ----        ------- ----- ------------
CODE                                00008306    000019D2 =        6610. bytes (REL,CON)

      Value  Global                              Global Defined In Module
      -----  --------------------------------   ------------------------
     00009270  A$applicationtion$744              application
     00009274  A$applicationtion$745              application
     00009275  A$applicationtion$746              application
     00009276  A$applicationtion$747              application
     00009277  A$applicationtion$748              application
     00009279  A$applicationtion$751              application
     00009279  C$application.c$262$1_0$713        application
     0000927B  A$applicationtion$752              application
     0000927D  A$applicationtion$755              application
     0000927D  C$application.c$263$1_0$713        application
     0000927E  A$applicationtion$756              application
     00009281  A$applicationtion$757              application
     00009282  A$applicationtion$760              application
     00009284  A$applicationtion$763              application
     00009284  C$application.c$264$1_0$713        application
     00009284  XFapplication$PrintUInt16$0$0      application
     00009285  A$applicationtion$773              application
     00009285  C$application.c$266$1_0$717        application
     00009285  C$application.c$268$1_0$717        application
     00009285  Fapplication$LowPowerHalt$0$0      application
     00009287  A$applicationtion$774              application
     0000928A  A$applicationtion$775              application
     0000928B  A$applicationtion$778              application
     0000928B  C$application.c$269$1_0$717        application
     0000928C  A$applicationtion$783              application
     0000928C  C$application.c$270$1_0$717        application
     0000928C  XFapplication$LowPowerHalt$0$0     application
     0000928D  A$applicationtion$793              application
     0000928D  C$application.c$272$1_0$719        application
     0000928D  C$application.c$274$1_0$719        application
     0000928D  Fapplication$SetLowPowerTimer$0$   application
     0000928F  A$applicationtion$794              application
     00009292  A$applicationtion$795              application
     00009293  A$applicationtion$798              application
     00009293  C$application.c$275$1_0$719        application
     00009295  A$applicationtion$799              application
     00009296  A$applicationtion$800              application
     00009299  A$applicationtion$801              application
     0000929A  A$applicationtion$804              application
     0000929A  C$application.c$276$1_0$719        application
     0000929C  A$applicationtion$805              application
     0000929F  A$applicationtion$806              application
     000092A0  A$applicationtion$811              application
     000092A0  C$application.c$277$1_0$719        application
     000092A0  XFapplication$SetLowPowerTimer$0   application
     000092A1  A$applicationtion$823              application
     000092A1  C$application.c$281$1_0$722        application
     000092A1  C$application.c$301$1_0$722        application
     000092A1  Fapplication$SendAckToClient$0$0   application
     000092A1  XFapplication$SendAckToClient$0$   application
     000092A2  A$applicationtion$831              application
ASxxxx Linker V03.00 + NoICE + sdld,  page 66.
Hexadecimal  [32-Bits]

Area                                    Addr        Size        Decimal Bytes (Attributes)
--------------------------------        ----        ----        ------- ----- ------------
CODE                                00008306    000019D2 =        6610. bytes (REL,CON)

      Value  Global                              Global Defined In Module
      -----  --------------------------------   ------------------------
     000092A2  C$application.c$303$1_0$724        application
     000092A2  Fapplication$CopySwap16$0$0        application
     000092A3  A$applicationtion$834              application
     000092A3  C$application.c$305$2_0$724        application
     000092A5  A$applicationtion$837              application
     000092A5  C$application.c$306$2_0$724        application
     000092A7  A$applicationtion$840              application
     000092A7  C$application.c$307$1_0$724        application
     000092A9  A$applicationtion$841              application
     000092AA  A$applicationtion$842              application
     000092AC  A$applicationtion$843              application
     000092AE  A$applicationtion$844              application
     000092AF  A$applicationtion$845              application
     000092B0  A$applicationtion$848              application
     000092B0  C$application.c$308$1_0$724        application
     000092B1  A$applicationtion$849              application
     000092B3  A$applicationtion$850              application
     000092B4  A$applicationtion$853              application
     000092B5  A$applicationtion$856              application
     000092B5  C$application.c$309$1_0$724        application
     000092B5  XFapplication$CopySwap16$0$0       application
     000092B6  A$applicationtion$864              application
     000092B6  C$application.c$312$1_0$726        application
     000092B6  Fapplication$SendSensorData$0$0    application
     000092B8  A$applicationtion$867              application
     000092B8  C$application.c$316$1_0$726        application
     000092BA  A$applicationtion$868              application
     000092BC  A$applicationtion$869              application
     000092BD  A$applicationtion$870              application
     000092BE  A$applicationtion$871              application
     000092BF  A$applicationtion$872              application
     000092C2  A$applicationtion$873              application
     000092C3  A$applicationtion$874              application
     000092C6  A$applicationtion$875              application
     000092C8  A$applicationtion$878              application
     000092C8  C$application.c$317$1_0$726        application
     000092C9  A$applicationtion$879              application
     000092CC  A$applicationtion$880              application
     000092CF  A$applicationtion$881              application
     000092D0  A$applicationtion$884              application
     000092D0  C$application.c$318$1_0$726        application
     000092D3  A$applicationtion$885              application
     000092D5  A$applicationtion$888              application
     000092D5  C$application.c$319$1_0$726        application
     000092D6  A$applicationtion$889              application
     000092D8  A$applicationtion$890              application
     000092DA  A$applicationtion$893              application
     000092DA  C$application.c$320$1_0$726        application
     000092DB  A$applicationtion$894              application
     000092DD  A$applicationtion$897              application
     000092DD  C$application.c$322$1_0$726        application
ASxxxx Linker V03.00 + NoICE + sdld,  page 67.
Hexadecimal  [32-Bits]

Area                                    Addr        Size        Decimal Bytes (Attributes)
--------------------------------        ----        ----        ------- ----- ------------
CODE                                00008306    000019D2 =        6610. bytes (REL,CON)

      Value  Global                              Global Defined In Module
      -----  --------------------------------   ------------------------
     000092DE  A$applicationtion$898              application
     000092E1  A$applicationtion$899              application
     000092E3  A$applicationtion$900              application
     000092E5  A$applicationtion$901              application
     000092E6  A$applicationtion$902              application
     000092E9  A$applicationtion$903              application
     000092EB  A$applicationtion$906              application
     000092EB  C$application.c$323$1_0$726        application
     000092EC  A$applicationtion$907              application
     000092EF  A$applicationtion$908              application
     000092F1  A$applicationtion$909              application
     000092F3  A$applicationtion$910              application
     000092F4  A$applicationtion$911              application
     000092F7  A$applicationtion$912              application
     000092F9  A$applicationtion$915              application
     000092F9  C$application.c$324$1_0$726        application
     000092FA  A$applicationtion$916              application
     000092FD  A$applicationtion$917              application
     000092FF  A$applicationtion$918              application
     00009301  A$applicationtion$919              application
     00009302  A$applicationtion$920              application
     00009305  A$applicationtion$921              application
     00009307  A$applicationtion$924              application
     00009307  C$application.c$325$1_0$726        application
     00009308  A$applicationtion$925              application
     0000930B  A$applicationtion$926              application
     0000930D  A$applicationtion$927              application
     0000930F  A$applicationtion$928              application
     00009310  A$applicationtion$929              application
     00009313  A$applicationtion$930              application
     00009315  A$applicationtion$933              application
     00009315  C$application.c$327$1_0$726        application
     00009316  A$applicationtion$934              application
     00009317  A$applicationtion$935              application
     00009319  A$applicationtion$936              application
     0000931A  A$applicationtion$937              application
     0000931D  A$applicationtion$938              application
     0000931F  A$applicationtion$941              application
     00009321  A$applicationtion$944              application
     00009321  C$application.c$328$1_0$726        application
     00009321  XFapplication$SendSensorData$0$0   application
     00009322  A$RTC__SetWakeUpCounternter$58     stm8l15x_rtc
     00009322  C$stm8l15x_rtc.c$1433$0_0$598      stm8l15x_rtc
     00009322  C$stm8l15x_rtc.c$1436$1_0$598      stm8l15x_rtc
     00009322  Fapplication$__str_1$0_0$0         application
     00009322  Fapplication$__str_10$0_0$0        application
     00009322  Fapplication$__str_11$0_0$0        application
     00009322  Fapplication$__str_12$0_0$0        application
     00009322  Fapplication$__str_13$0_0$0        application
     00009322  Fapplication$__str_14$0_0$0        application
     00009322  Fapplication$__str_15$0_0$0        application
ASxxxx Linker V03.00 + NoICE + sdld,  page 68.
Hexadecimal  [32-Bits]

Area                                    Addr        Size        Decimal Bytes (Attributes)
--------------------------------        ----        ----        ------- ----- ------------
CODE                                00008306    000019D2 =        6610. bytes (REL,CON)

      Value  Global                              Global Defined In Module
      -----  --------------------------------   ------------------------
     00009322  Fapplication$__str_2$0_0$0         application
     00009322  Fapplication$__str_3$0_0$0         application
     00009322  Fapplication$__str_4$0_0$0         application
     00009322  Fapplication$__str_5$0_0$0         application
     00009322  Fapplication$__str_6$0_0$0         application
     00009322  Fapplication$__str_7$0_0$0         application
     00009322  Fapplication$__str_8$0_0$0         application
     00009322  Fapplication$__str_9$0_0$0         application
     00009322  G$RTC_SetWakeUpCounter$0$0         stm8l15x_rtc
     00009322  _RTC_SetWakeUpCounter              stm8l15x_rtc
     00009326  A$RTC__SetWakeUpCounternter$61     stm8l15x_rtc
     00009326  C$stm8l15x_rtc.c$1437$1_0$598      stm8l15x_rtc
     0000932A  A$RTC__SetWakeUpCounternter$64     stm8l15x_rtc
     0000932A  C$stm8l15x_rtc.c$1441$1_0$598      stm8l15x_rtc
     0000932C  A$RTC__SetWakeUpCounternter$65     stm8l15x_rtc
     0000932F  A$RTC__SetWakeUpCounternter$68     stm8l15x_rtc
     0000932F  C$stm8l15x_rtc.c$1442$1_0$598      stm8l15x_rtc
     00009331  A$RTC__SetWakeUpCounternter$69     stm8l15x_rtc
     00009334  A$RTC__SetWakeUpCounternter$72     stm8l15x_rtc
     00009334  C$stm8l15x_rtc.c$1445$1_0$598      stm8l15x_rtc
     00009338  A$RTC__SetWakeUpCounternter$77     stm8l15x_rtc
     00009338  C$stm8l15x_rtc.c$1446$1_0$598      stm8l15x_rtc
     00009338  XG$RTC_SetWakeUpCounter$0$0        stm8l15x_rtc
     00009339  A$GPIO__InitInit$56                stm8l15x_gpio
     00009339  C$stm8l15x_gpio.c$134$0_0$596      stm8l15x_gpio
     00009339  G$GPIO_Init$0$0                    stm8l15x_gpio
     00009339  _GPIO_Init                         stm8l15x_gpio
     0000933B  A$GPIO__InitInit$59                stm8l15x_gpio
     0000933D  A$GPIO__InitInit$60                stm8l15x_gpio
     0000933E  A$GPIO__InitInit$61                stm8l15x_gpio
     00009341  A$GPIO__InitInit$62                stm8l15x_gpio
     00009343  A$GPIO__InitInit$63                stm8l15x_gpio
     00009344  A$GPIO__InitInit$64                stm8l15x_gpio
     00009345  A$GPIO__InitInit$65                stm8l15x_gpio
     00009347  A$GPIO__InitInit$66                stm8l15x_gpio
     00009348  A$GPIO__InitInit$67                stm8l15x_gpio
     0000934A  A$GPIO__InitInit$68                stm8l15x_gpio
     0000934B  A$GPIO__InitInit$69                stm8l15x_gpio
     0000934D  A$GPIO__InitInit$70                stm8l15x_gpio
     0000934F  A$GPIO__InitInit$71                stm8l15x_gpio
     00009350  A$GPIO__InitInit$74                stm8l15x_gpio
     00009350  C$stm8l15x_gpio.c$160$1_0$596      stm8l15x_gpio
     00009351  A$GPIO__InitInit$75                stm8l15x_gpio
     00009352  A$GPIO__InitInit$76                stm8l15x_gpio
     00009353  A$GPIO__InitInit$77                stm8l15x_gpio
     00009355  A$GPIO__InitInit$80                stm8l15x_gpio
     00009355  C$stm8l15x_gpio.c$150$1_0$596      stm8l15x_gpio
     00009357  A$GPIO__InitInit$81                stm8l15x_gpio
     00009359  A$GPIO__InitInit$84                stm8l15x_gpio
     00009359  C$stm8l15x_gpio.c$154$1_0$596      stm8l15x_gpio
     0000935B  A$GPIO__InitInit$87                stm8l15x_gpio
ASxxxx Linker V03.00 + NoICE + sdld,  page 69.
Hexadecimal  [32-Bits]

Area                                    Addr        Size        Decimal Bytes (Attributes)
--------------------------------        ----        ----        ------- ----- ------------
CODE                                00008306    000019D2 =        6610. bytes (REL,CON)

      Value  Global                              Global Defined In Module
      -----  --------------------------------   ------------------------
     0000935B  C$stm8l15x_gpio.c$152$2_0$597      stm8l15x_gpio
     0000935C  A$GPIO__InitInit$88                stm8l15x_gpio
     0000935E  A$GPIO__InitInit$89                stm8l15x_gpio
     00009360  A$GPIO__InitInit$90                stm8l15x_gpio
     00009361  A$GPIO__InitInit$91                stm8l15x_gpio
     00009363  A$GPIO__InitInit$94                stm8l15x_gpio
     00009363  C$stm8l15x_gpio.c$154$3_0$598      stm8l15x_gpio
     00009365  A$GPIO__InitInit$95                stm8l15x_gpio
     00009367  A$GPIO__InitInit$96                stm8l15x_gpio
     00009369  A$GPIO__InitInit$100               stm8l15x_gpio
     00009369  C$stm8l15x_gpio.c$157$3_0$599      stm8l15x_gpio
     0000936B  A$GPIO__InitInit$101               stm8l15x_gpio
     0000936D  A$GPIO__InitInit$105               stm8l15x_gpio
     0000936D  C$stm8l15x_gpio.c$160$2_0$597      stm8l15x_gpio
     0000936F  A$GPIO__InitInit$106               stm8l15x_gpio
     00009370  A$GPIO__InitInit$107               stm8l15x_gpio
     00009372  A$GPIO__InitInit$108               stm8l15x_gpio
     00009374  A$GPIO__InitInit$109               stm8l15x_gpio
     00009375  A$GPIO__InitInit$110               stm8l15x_gpio
     00009377  A$GPIO__InitInit$114               stm8l15x_gpio
     00009377  C$stm8l15x_gpio.c$164$2_0$600      stm8l15x_gpio
     00009379  A$GPIO__InitInit$115               stm8l15x_gpio
     0000937A  A$GPIO__InitInit$116               stm8l15x_gpio
     0000937C  A$GPIO__InitInit$117               stm8l15x_gpio
     0000937E  A$GPIO__InitInit$118               stm8l15x_gpio
     0000937F  A$GPIO__InitInit$122               stm8l15x_gpio
     0000937F  C$stm8l15x_gpio.c$173$1_0$596      stm8l15x_gpio
     00009380  A$GPIO__InitInit$123               stm8l15x_gpio
     00009383  A$GPIO__InitInit$124               stm8l15x_gpio
     00009384  A$GPIO__InitInit$127               stm8l15x_gpio
     00009384  C$stm8l15x_gpio.c$171$1_0$596      stm8l15x_gpio
     00009385  A$GPIO__InitInit$128               stm8l15x_gpio
     00009387  A$GPIO__InitInit$129               stm8l15x_gpio
     00009389  A$GPIO__InitInit$130               stm8l15x_gpio
     0000938A  A$GPIO__InitInit$131               stm8l15x_gpio
     0000938C  A$GPIO__InitInit$134               stm8l15x_gpio
     0000938C  C$stm8l15x_gpio.c$173$2_0$601      stm8l15x_gpio
     0000938E  A$GPIO__InitInit$135               stm8l15x_gpio
     0000938F  A$GPIO__InitInit$136               stm8l15x_gpio
     00009391  A$GPIO__InitInit$140               stm8l15x_gpio
     00009391  C$stm8l15x_gpio.c$176$2_0$602      stm8l15x_gpio
     00009393  A$GPIO__InitInit$141               stm8l15x_gpio
     00009394  A$GPIO__InitInit$145               stm8l15x_gpio
     00009394  C$stm8l15x_gpio.c$144$1_0$596      stm8l15x_gpio
     00009396  A$GPIO__InitInit$146               stm8l15x_gpio
     00009397  A$GPIO__InitInit$149               stm8l15x_gpio
     00009397  C$stm8l15x_gpio.c$183$1_0$596      stm8l15x_gpio
     00009398  A$GPIO__InitInit$150               stm8l15x_gpio
     0000939A  A$GPIO__InitInit$151               stm8l15x_gpio
     0000939C  A$GPIO__InitInit$152               stm8l15x_gpio
     0000939D  A$GPIO__InitInit$153               stm8l15x_gpio
ASxxxx Linker V03.00 + NoICE + sdld,  page 70.
Hexadecimal  [32-Bits]

Area                                    Addr        Size        Decimal Bytes (Attributes)
--------------------------------        ----        ----        ------- ----- ------------
CODE                                00008306    000019D2 =        6610. bytes (REL,CON)

      Value  Global                              Global Defined In Module
      -----  --------------------------------   ------------------------
     0000939F  A$GPIO__InitInit$156               stm8l15x_gpio
     0000939F  C$stm8l15x_gpio.c$185$2_0$603      stm8l15x_gpio
     000093A1  A$GPIO__InitInit$157               stm8l15x_gpio
     000093A3  A$GPIO__InitInit$158               stm8l15x_gpio
     000093A4  A$GPIO__InitInit$159               stm8l15x_gpio
     000093A6  A$GPIO__InitInit$163               stm8l15x_gpio
     000093A6  C$stm8l15x_gpio.c$188$2_0$604      stm8l15x_gpio
     000093A8  A$GPIO__InitInit$164               stm8l15x_gpio
     000093AA  A$GPIO__InitInit$165               stm8l15x_gpio
     000093AB  A$GPIO__InitInit$169               stm8l15x_gpio
     000093AD  A$GPIO__InitInit$172               stm8l15x_gpio
     000093AD  C$stm8l15x_gpio.c$190$1_0$596      stm8l15x_gpio
     000093AD  XG$GPIO_Init$0$0                   stm8l15x_gpio
     000093AE  A$USART__ReceiveData8ata8$58       stm8l15x_usart
     000093AE  C$stm8l15x_usart.c$389$0_0$596     stm8l15x_usart
     000093AE  C$stm8l15x_usart.c$391$1_0$596     stm8l15x_usart
     000093AE  G$USART_ReceiveData8$0$0           stm8l15x_usart
     000093AE  _USART_ReceiveData8                stm8l15x_usart
     000093B0  A$USART__ReceiveData8ata8$59       stm8l15x_usart
     000093B2  A$USART__ReceiveData8ata8$64       stm8l15x_usart
     000093B2  C$stm8l15x_usart.c$392$1_0$596     stm8l15x_usart
     000093B2  XG$USART_ReceiveData8$0$0          stm8l15x_usart
     000093B3  A$CLK__RTCClockConfignfig$58       stm8l15x_clk
     000093B3  C$stm8l15x_clk.c$634$0_0$596       stm8l15x_clk
     000093B3  C$stm8l15x_clk.c$641$1_0$596       stm8l15x_clk
     000093B3  G$CLK_RTCClockConfig$0$0           stm8l15x_clk
     000093B3  _CLK_RTCClockConfig                stm8l15x_clk
     000093B5  A$CLK__RTCClockConfignfig$59       stm8l15x_clk
     000093B7  A$CLK__RTCClockConfignfig$60       stm8l15x_clk
     000093BA  A$CLK__RTCClockConfignfig$65       stm8l15x_clk
     000093BA  C$stm8l15x_clk.c$642$1_0$596       stm8l15x_clk
     000093BA  XG$CLK_RTCClockConfig$0$0          stm8l15x_clk
     000093BB  A$TIM4__ClearITPendingBitgBit$58   stm8l15x_tim4
     000093BB  C$stm8l15x_tim4.c$567$0_0$596      stm8l15x_tim4
     000093BB  C$stm8l15x_tim4.c$573$1_0$596      stm8l15x_tim4
     000093BB  G$TIM4_ClearITPendingBit$0$0       stm8l15x_tim4
     000093BB  _TIM4_ClearITPendingBit            stm8l15x_tim4
     000093BD  A$TIM4__ClearITPendingBitgBit$59   stm8l15x_tim4
     000093BE  A$TIM4__ClearITPendingBitgBit$60   stm8l15x_tim4
     000093C1  A$TIM4__ClearITPendingBitgBit$65   stm8l15x_tim4
     000093C1  C$stm8l15x_tim4.c$574$1_0$596      stm8l15x_tim4
     000093C1  XG$TIM4_ClearITPendingBit$0$0      stm8l15x_tim4
     000093C2  A$RTC__WakeUpCmdpCmd$58            stm8l15x_rtc
     000093C2  C$stm8l15x_rtc.c$1475$0_0$598      stm8l15x_rtc
     000093C2  C$stm8l15x_rtc.c$1484$1_0$598      stm8l15x_rtc
     000093C2  G$RTC_WakeUpCmd$0$0                stm8l15x_rtc
     000093C2  _RTC_WakeUpCmd                     stm8l15x_rtc
     000093C6  A$RTC__WakeUpCmdpCmd$61            stm8l15x_rtc
     000093C6  C$stm8l15x_rtc.c$1485$1_0$598      stm8l15x_rtc
     000093CA  A$RTC__WakeUpCmdpCmd$64            stm8l15x_rtc
     000093CA  C$stm8l15x_rtc.c$1490$1_0$598      stm8l15x_rtc
ASxxxx Linker V03.00 + NoICE + sdld,  page 71.
Hexadecimal  [32-Bits]

Area                                    Addr        Size        Decimal Bytes (Attributes)
--------------------------------        ----        ----        ------- ----- ------------
CODE                                00008306    000019D2 =        6610. bytes (REL,CON)

      Value  Global                              Global Defined In Module
      -----  --------------------------------   ------------------------
     000093CD  A$RTC__WakeUpCmdpCmd$67            stm8l15x_rtc
     000093CD  C$stm8l15x_rtc.c$1487$1_0$598      stm8l15x_rtc
     000093CF  A$RTC__WakeUpCmdpCmd$68            stm8l15x_rtc
     000093D1  A$RTC__WakeUpCmdpCmd$71            stm8l15x_rtc
     000093D1  C$stm8l15x_rtc.c$1490$2_0$599      stm8l15x_rtc
     000093D3  A$RTC__WakeUpCmdpCmd$72            stm8l15x_rtc
     000093D6  A$RTC__WakeUpCmdpCmd$75            stm8l15x_rtc
     000093D6  C$stm8l15x_rtc.c$1492$2_0$599      stm8l15x_rtc
     000093D8  A$RTC__WakeUpCmdpCmd$76            stm8l15x_rtc
     000093DA  A$RTC__WakeUpCmdpCmd$80            stm8l15x_rtc
     000093DA  C$stm8l15x_rtc.c$1497$2_0$600      stm8l15x_rtc
     000093DC  A$RTC__WakeUpCmdpCmd$81            stm8l15x_rtc
     000093DF  A$RTC__WakeUpCmdpCmd$84            stm8l15x_rtc
     000093DF  C$stm8l15x_rtc.c$1500$1_0$598      stm8l15x_rtc
     000093E0  A$RTC__WakeUpCmdpCmd$86            stm8l15x_rtc
     000093E3  A$RTC__WakeUpCmdpCmd$87            stm8l15x_rtc
     000093E5  A$RTC__WakeUpCmdpCmd$88            stm8l15x_rtc
     000093E7  A$RTC__WakeUpCmdpCmd$89            stm8l15x_rtc
     000093EA  A$RTC__WakeUpCmdpCmd$90            stm8l15x_rtc
     000093EC  A$RTC__WakeUpCmdpCmd$93            stm8l15x_rtc
     000093EC  C$stm8l15x_rtc.c$1502$3_0$601      stm8l15x_rtc
     000093ED  A$RTC__WakeUpCmdpCmd$94            stm8l15x_rtc
     000093EF  A$RTC__WakeUpCmdpCmd$98            stm8l15x_rtc
     000093EF  C$stm8l15x_rtc.c$1506$2_0$600      stm8l15x_rtc
     000093F2  A$RTC__WakeUpCmdpCmd$99            stm8l15x_rtc
     000093F4  A$RTC__WakeUpCmdpCmd$100           stm8l15x_rtc
     000093F6  A$RTC__WakeUpCmdpCmd$103           stm8l15x_rtc
     000093F6  C$stm8l15x_rtc.c$1508$3_0$602      stm8l15x_rtc
     000093F7  A$RTC__WakeUpCmdpCmd$104           stm8l15x_rtc
     000093F9  A$RTC__WakeUpCmdpCmd$108           stm8l15x_rtc
     000093F9  C$stm8l15x_rtc.c$1512$3_0$603      stm8l15x_rtc
     000093FB  A$RTC__WakeUpCmdpCmd$112           stm8l15x_rtc
     000093FB  C$stm8l15x_rtc.c$1517$1_0$598      stm8l15x_rtc
     000093FF  A$RTC__WakeUpCmdpCmd$119           stm8l15x_rtc
     000093FF  C$stm8l15x_rtc.c$1520$1_0$598      stm8l15x_rtc
     000093FF  C$stm8l15x_rtc.c$1521$1_0$598      stm8l15x_rtc
     000093FF  XG$RTC_WakeUpCmd$0$0               stm8l15x_rtc
     00009400  A$SPI__GetFlagStatusatus$58        stm8l15x_spi
     00009400  C$stm8l15x_spi.c$676$0_0$596       stm8l15x_spi
     00009400  C$stm8l15x_spi.c$683$1_0$596       stm8l15x_spi
     00009400  G$SPI_GetFlagStatus$0$0            stm8l15x_spi
     00009400  _SPI_GetFlagStatus                 stm8l15x_spi
     00009402  A$SPI__GetFlagStatusatus$59        stm8l15x_spi
     00009404  A$SPI__GetFlagStatusatus$60        stm8l15x_spi
     00009406  A$SPI__GetFlagStatusatus$61        stm8l15x_spi
     00009408  A$SPI__GetFlagStatusatus$64        stm8l15x_spi
     00009408  C$stm8l15x_spi.c$685$2_0$597       stm8l15x_spi
     0000940A  A$SPI__GetFlagStatusatus$65        stm8l15x_spi
     0000940C  A$SPI__GetFlagStatusatus$69        stm8l15x_spi
     0000940C  C$stm8l15x_spi.c$689$2_0$598       stm8l15x_spi
     0000940D  A$SPI__GetFlagStatusatus$77        stm8l15x_spi
ASxxxx Linker V03.00 + NoICE + sdld,  page 72.
Hexadecimal  [32-Bits]

Area                                    Addr        Size        Decimal Bytes (Attributes)
--------------------------------        ----        ----        ------- ----- ------------
CODE                                00008306    000019D2 =        6610. bytes (REL,CON)

      Value  Global                              Global Defined In Module
      -----  --------------------------------   ------------------------
     0000940D  C$stm8l15x_spi.c$693$1_0$596       stm8l15x_spi
     0000940D  C$stm8l15x_spi.c$694$1_0$596       stm8l15x_spi
     0000940D  XG$SPI_GetFlagStatus$0$0           stm8l15x_spi
     0000940E  A$ADC__GetConversionValuealue$56   stm8l15x_adc
     0000940E  C$stm8l15x_adc.c$731$0_0$596       stm8l15x_adc
     0000940E  G$ADC_GetConversionValue$0$0       stm8l15x_adc
     0000940E  _ADC_GetConversionValue            stm8l15x_adc
     00009410  A$ADC__GetConversionValuealue$59   stm8l15x_adc
     00009410  C$stm8l15x_adc.c$736$1_0$596       stm8l15x_adc
     00009412  A$ADC__GetConversionValuealue$60   stm8l15x_adc
     00009413  A$ADC__GetConversionValuealue$61   stm8l15x_adc
     00009415  A$ADC__GetConversionValuealue$64   stm8l15x_adc
     00009415  C$stm8l15x_adc.c$737$1_0$596       stm8l15x_adc
     00009416  A$ADC__GetConversionValuealue$65   stm8l15x_adc
     00009418  A$ADC__GetConversionValuealue$66   stm8l15x_adc
     0000941B  A$ADC__GetConversionValuealue$67   stm8l15x_adc
     0000941D  A$ADC__GetConversionValuealue$68   stm8l15x_adc
     0000941F  A$ADC__GetConversionValuealue$69   stm8l15x_adc
     00009420  A$ADC__GetConversionValuealue$70   stm8l15x_adc
     00009422  A$ADC__GetConversionValuealue$73   stm8l15x_adc
     00009422  C$stm8l15x_adc.c$740$1_0$596       stm8l15x_adc
     00009423  A$ADC__GetConversionValuealue$76   stm8l15x_adc
     00009425  A$ADC__GetConversionValuealue$79   stm8l15x_adc
     00009425  C$stm8l15x_adc.c$741$1_0$596       stm8l15x_adc
     00009425  XG$ADC_GetConversionValue$0$0      stm8l15x_adc
     00009426  A$USART__SendData8ata8$58          stm8l15x_usart
     00009426  C$stm8l15x_usart.c$414$0_0$596     stm8l15x_usart
     00009426  C$stm8l15x_usart.c$417$1_0$596     stm8l15x_usart
     00009426  G$USART_SendData8$0$0              stm8l15x_usart
     00009426  _USART_SendData8                   stm8l15x_usart
     00009428  A$USART__SendData8ata8$59          stm8l15x_usart
     00009429  A$USART__SendData8ata8$60          stm8l15x_usart
     0000942B  A$USART__SendData8ata8$61          stm8l15x_usart
     0000942C  A$USART__SendData8ata8$66          stm8l15x_usart
     0000942C  C$stm8l15x_usart.c$418$1_0$596     stm8l15x_usart
     0000942C  XG$USART_SendData8$0$0             stm8l15x_usart
     0000942D  A$TIM4__ITConfignfig$56            stm8l15x_tim4
     0000942D  C$stm8l15x_tim4.c$443$0_0$596      stm8l15x_tim4
     0000942D  G$TIM4_ITConfig$0$0                stm8l15x_tim4
     0000942D  _TIM4_ITConfig                     stm8l15x_tim4
     0000942E  A$TIM4__ITConfignfig$59            stm8l15x_tim4
     0000942E  C$stm8l15x_tim4.c$452$1_0$596      stm8l15x_tim4
     00009431  A$TIM4__ITConfignfig$62            stm8l15x_tim4
     00009431  C$stm8l15x_tim4.c$449$1_0$596      stm8l15x_tim4
     00009433  A$TIM4__ITConfignfig$63            stm8l15x_tim4
     00009435  A$TIM4__ITConfignfig$66            stm8l15x_tim4
     00009435  C$stm8l15x_tim4.c$452$2_0$597      stm8l15x_tim4
     00009437  A$TIM4__ITConfignfig$67            stm8l15x_tim4
     0000943A  A$TIM4__ITConfignfig$68            stm8l15x_tim4
     0000943C  A$TIM4__ITConfignfig$72            stm8l15x_tim4
     0000943C  C$stm8l15x_tim4.c$457$2_0$598      stm8l15x_tim4
ASxxxx Linker V03.00 + NoICE + sdld,  page 73.
Hexadecimal  [32-Bits]

Area                                    Addr        Size        Decimal Bytes (Attributes)
--------------------------------        ----        ----        ------- ----- ------------
CODE                                00008306    000019D2 =        6610. bytes (REL,CON)

      Value  Global                              Global Defined In Module
      -----  --------------------------------   ------------------------
     0000943D  A$TIM4__ITConfignfig$73            stm8l15x_tim4
     0000943F  A$TIM4__ITConfignfig$74            stm8l15x_tim4
     00009440  A$TIM4__ITConfignfig$75            stm8l15x_tim4
     00009442  A$TIM4__ITConfignfig$76            stm8l15x_tim4
     00009443  A$TIM4__ITConfignfig$77            stm8l15x_tim4
     00009445  A$TIM4__ITConfignfig$78            stm8l15x_tim4
     00009448  A$TIM4__ITConfignfig$82            stm8l15x_tim4
     00009449  A$TIM4__ITConfignfig$85            stm8l15x_tim4
     00009449  C$stm8l15x_tim4.c$459$1_0$596      stm8l15x_tim4
     00009449  XG$TIM4_ITConfig$0$0               stm8l15x_tim4
     0000944A  A$RTC__ClearITPendingBitgBit$58    stm8l15x_rtc
     0000944A  C$stm8l15x_rtc.c$2225$0_0$598      stm8l15x_rtc
     0000944A  C$stm8l15x_rtc.c$2231$1_0$598      stm8l15x_rtc
     0000944A  G$RTC_ClearITPendingBit$0$0        stm8l15x_rtc
     0000944A  _RTC_ClearITPendingBit             stm8l15x_rtc
     0000944C  A$RTC__ClearITPendingBitgBit$59    stm8l15x_rtc
     0000944E  A$RTC__ClearITPendingBitgBit$60    stm8l15x_rtc
     0000944F  A$RTC__ClearITPendingBitgBit$61    stm8l15x_rtc
     00009450  A$RTC__ClearITPendingBitgBit$62    stm8l15x_rtc
     00009451  A$RTC__ClearITPendingBitgBit$63    stm8l15x_rtc
     00009454  A$RTC__ClearITPendingBitgBit$68    stm8l15x_rtc
     00009454  C$stm8l15x_rtc.c$2232$1_0$598      stm8l15x_rtc
     00009454  XG$RTC_ClearITPendingBit$0$0       stm8l15x_rtc
     00009455  A$I2C__Cmd_Cmd$58                  stm8l15x_i2c
     00009455  C$stm8l15x_i2c.c$298$0_0$596       stm8l15x_i2c
     00009455  C$stm8l15x_i2c.c$307$1_0$596       stm8l15x_i2c
     00009455  G$I2C_Cmd$0$0                      stm8l15x_i2c
     00009455  _I2C_Cmd                           stm8l15x_i2c
     00009457  A$I2C__Cmd_Cmd$59                  stm8l15x_i2c
     00009458  A$I2C__Cmd_Cmd$62                  stm8l15x_i2c
     00009458  C$stm8l15x_i2c.c$304$1_0$596       stm8l15x_i2c
     0000945A  A$I2C__Cmd_Cmd$63                  stm8l15x_i2c
     0000945C  A$I2C__Cmd_Cmd$66                  stm8l15x_i2c
     0000945C  C$stm8l15x_i2c.c$307$2_0$597       stm8l15x_i2c
     0000945E  A$I2C__Cmd_Cmd$67                  stm8l15x_i2c
     0000945F  A$I2C__Cmd_Cmd$68                  stm8l15x_i2c
     00009461  A$I2C__Cmd_Cmd$72                  stm8l15x_i2c
     00009461  C$stm8l15x_i2c.c$312$2_0$598       stm8l15x_i2c
     00009463  A$I2C__Cmd_Cmd$73                  stm8l15x_i2c
     00009464  A$I2C__Cmd_Cmd$79                  stm8l15x_i2c
     00009464  C$stm8l15x_i2c.c$314$1_0$596       stm8l15x_i2c
     00009464  XG$I2C_Cmd$0$0                     stm8l15x_i2c
     00009465  A$I2C__InitInit$57                 stm8l15x_i2c
     00009465  C$stm8l15x_i2c.c$186$0_0$596       stm8l15x_i2c
     00009465  G$I2C_Init$0$0                     stm8l15x_i2c
     00009465  _I2C_Init                          stm8l15x_i2c
     00009467  A$I2C__InitInit$60                 stm8l15x_i2c
     00009467  C$stm8l15x_i2c.c$192$2_0$596       stm8l15x_i2c
     00009469  A$I2C__InitInit$63                 stm8l15x_i2c
     00009469  C$stm8l15x_i2c.c$205$1_0$596       stm8l15x_i2c
     0000946C  A$I2C__InitInit$64                 stm8l15x_i2c
ASxxxx Linker V03.00 + NoICE + sdld,  page 74.
Hexadecimal  [32-Bits]

Area                                    Addr        Size        Decimal Bytes (Attributes)
--------------------------------        ----        ----        ------- ----- ------------
CODE                                00008306    000019D2 =        6610. bytes (REL,CON)

      Value  Global                              Global Defined In Module
      -----  --------------------------------   ------------------------
     0000946E  A$I2C__InitInit$65                 stm8l15x_i2c
     00009470  A$I2C__InitInit$66                 stm8l15x_i2c
     00009472  A$I2C__InitInit$67                 stm8l15x_i2c
     00009474  A$I2C__InitInit$68                 stm8l15x_i2c
     00009475  A$I2C__InitInit$69                 stm8l15x_i2c
     00009477  A$I2C__InitInit$70                 stm8l15x_i2c
     0000947A  A$I2C__InitInit$71                 stm8l15x_i2c
     0000947C  A$I2C__InitInit$72                 stm8l15x_i2c
     0000947D  A$I2C__InitInit$73                 stm8l15x_i2c
     0000947F  A$I2C__InitInit$76                 stm8l15x_i2c
     0000947F  C$stm8l15x_i2c.c$209$1_0$596       stm8l15x_i2c
     00009481  A$I2C__InitInit$77                 stm8l15x_i2c
     00009483  A$I2C__InitInit$78                 stm8l15x_i2c
     00009484  A$I2C__InitInit$79                 stm8l15x_i2c
     00009485  A$I2C__InitInit$80                 stm8l15x_i2c
     00009486  A$I2C__InitInit$81                 stm8l15x_i2c
     00009487  A$I2C__InitInit$82                 stm8l15x_i2c
     00009489  A$I2C__InitInit$83                 stm8l15x_i2c
     0000948A  A$I2C__InitInit$86                 stm8l15x_i2c
     0000948A  C$stm8l15x_i2c.c$211$1_0$596       stm8l15x_i2c
     0000948B  A$I2C__InitInit$87                 stm8l15x_i2c
     0000948C  A$I2C__InitInit$88                 stm8l15x_i2c
     0000948D  A$I2C__InitInit$89                 stm8l15x_i2c
     0000948F  A$I2C__InitInit$90                 stm8l15x_i2c
     00009490  A$I2C__InitInit$93                 stm8l15x_i2c
     00009490  C$stm8l15x_i2c.c$215$1_0$596       stm8l15x_i2c
     00009492  A$I2C__InitInit$94                 stm8l15x_i2c
     00009493  A$I2C__InitInit$95                 stm8l15x_i2c
     00009495  A$I2C__InitInit$96                 stm8l15x_i2c
     00009497  A$I2C__InitInit$97                 stm8l15x_i2c
     00009498  A$I2C__InitInit$100                stm8l15x_i2c
     00009498  C$stm8l15x_i2c.c$218$1_0$596       stm8l15x_i2c
     0000949A  A$I2C__InitInit$101                stm8l15x_i2c
     0000949D  A$I2C__InitInit$102                stm8l15x_i2c
     0000949F  A$I2C__InitInit$103                stm8l15x_i2c
     000094A0  A$I2C__InitInit$104                stm8l15x_i2c
     000094A2  A$I2C__InitInit$105                stm8l15x_i2c
     000094A4  A$I2C__InitInit$106                stm8l15x_i2c
     000094A5  A$I2C__InitInit$109                stm8l15x_i2c
     000094A5  C$stm8l15x_i2c.c$219$1_0$596       stm8l15x_i2c
     000094A7  A$I2C__InitInit$110                stm8l15x_i2c
     000094AA  A$I2C__InitInit$111                stm8l15x_i2c
     000094AC  A$I2C__InitInit$112                stm8l15x_i2c
     000094AD  A$I2C__InitInit$113                stm8l15x_i2c
     000094AF  A$I2C__InitInit$114                stm8l15x_i2c
     000094B0  A$I2C__InitInit$117                stm8l15x_i2c
     000094B2  A$I2C__InitInit$118                stm8l15x_i2c
     000094B3  A$I2C__InitInit$119                stm8l15x_i2c
     000094B5  A$I2C__InitInit$122                stm8l15x_i2c
     000094B5  C$stm8l15x_i2c.c$251$1_0$596       stm8l15x_i2c
     000094B7  A$I2C__InitInit$123                stm8l15x_i2c
ASxxxx Linker V03.00 + NoICE + sdld,  page 75.
Hexadecimal  [32-Bits]

Area                                    Addr        Size        Decimal Bytes (Attributes)
--------------------------------        ----        ----        ------- ----- ------------
CODE                                00008306    000019D2 =        6610. bytes (REL,CON)

      Value  Global                              Global Defined In Module
      -----  --------------------------------   ------------------------
     000094BB  A$I2C__InitInit$124                stm8l15x_i2c
     000094BD  A$I2C__InitInit$127                stm8l15x_i2c
     000094BE  A$I2C__InitInit$128                stm8l15x_i2c
     000094BF  A$I2C__InitInit$129                stm8l15x_i2c
     000094C1  A$I2C__InitInit$130                stm8l15x_i2c
     000094C2  A$I2C__InitInit$131                stm8l15x_i2c
     000094C4  A$I2C__InitInit$132                stm8l15x_i2c
     000094C6  A$I2C__InitInit$133                stm8l15x_i2c
     000094C8  A$I2C__InitInit$134                stm8l15x_i2c
     000094CA  A$I2C__InitInit$135                stm8l15x_i2c
     000094CD  A$I2C__InitInit$136                stm8l15x_i2c
     000094CF  A$I2C__InitInit$137                stm8l15x_i2c
     000094D1  A$I2C__InitInit$138                stm8l15x_i2c
     000094D3  A$I2C__InitInit$141                stm8l15x_i2c
     000094D3  C$stm8l15x_i2c.c$222$1_0$596       stm8l15x_i2c
     000094D6  A$I2C__InitInit$142                stm8l15x_i2c
     000094D8  A$I2C__InitInit$143                stm8l15x_i2c
     000094DA  A$I2C__InitInit$144                stm8l15x_i2c
     000094DC  A$I2C__InitInit$145                stm8l15x_i2c
     000094DD  A$I2C__InitInit$146                stm8l15x_i2c
     000094DF  A$I2C__InitInit$147                stm8l15x_i2c
     000094E1  A$I2C__InitInit$148                stm8l15x_i2c
     000094E4  A$I2C__InitInit$152                stm8l15x_i2c
     000094E4  C$stm8l15x_i2c.c$225$2_0$597       stm8l15x_i2c
     000094E6  A$I2C__InitInit$153                stm8l15x_i2c
     000094E8  A$I2C__InitInit$156                stm8l15x_i2c
     000094E8  C$stm8l15x_i2c.c$227$2_0$597       stm8l15x_i2c
     000094EA  A$I2C__InitInit$157                stm8l15x_i2c
     000094EC  A$I2C__InitInit$160                stm8l15x_i2c
     000094EC  C$stm8l15x_i2c.c$230$1_0$596       stm8l15x_i2c
     000094EE  A$I2C__InitInit$161                stm8l15x_i2c
     000094EF  A$I2C__InitInit$162                stm8l15x_i2c
     000094F1  A$I2C__InitInit$163                stm8l15x_i2c
     000094F2  A$I2C__InitInit$164                stm8l15x_i2c
     000094F4  A$I2C__InitInit$165                stm8l15x_i2c
     000094F5  A$I2C__InitInit$166                stm8l15x_i2c
     000094F6  A$I2C__InitInit$167                stm8l15x_i2c
     000094F8  A$I2C__InitInit$168                stm8l15x_i2c
     000094FB  A$I2C__InitInit$169                stm8l15x_i2c
     000094FD  A$I2C__InitInit$170                stm8l15x_i2c
     000094FE  A$I2C__InitInit$171                stm8l15x_i2c
     00009500  A$I2C__InitInit$172                stm8l15x_i2c
     00009502  A$I2C__InitInit$173                stm8l15x_i2c
     00009503  A$I2C__InitInit$174                stm8l15x_i2c
     00009505  A$I2C__InitInit$175                stm8l15x_i2c
     00009506  A$I2C__InitInit$176                stm8l15x_i2c
     00009509  A$I2C__InitInit$177                stm8l15x_i2c
     0000950B  A$I2C__InitInit$178                stm8l15x_i2c
     0000950D  A$I2C__InitInit$179                stm8l15x_i2c
     0000950F  A$I2C__InitInit$180                stm8l15x_i2c
     00009511  A$I2C__InitInit$184                stm8l15x_i2c
ASxxxx Linker V03.00 + NoICE + sdld,  page 76.
Hexadecimal  [32-Bits]

Area                                    Addr        Size        Decimal Bytes (Attributes)
--------------------------------        ----        ----        ------- ----- ------------
CODE                                00008306    000019D2 =        6610. bytes (REL,CON)

      Value  Global                              Global Defined In Module
      -----  --------------------------------   ------------------------
     00009511  C$stm8l15x_i2c.c$235$1_0$596       stm8l15x_i2c
     00009513  A$I2C__InitInit$185                stm8l15x_i2c
     00009514  A$I2C__InitInit$186                stm8l15x_i2c
     00009516  A$I2C__InitInit$187                stm8l15x_i2c
     00009517  A$I2C__InitInit$188                stm8l15x_i2c
     00009519  A$I2C__InitInit$189                stm8l15x_i2c
     0000951A  A$I2C__InitInit$190                stm8l15x_i2c
     0000951B  A$I2C__InitInit$191                stm8l15x_i2c
     0000951D  A$I2C__InitInit$192                stm8l15x_i2c
     00009520  A$I2C__InitInit$193                stm8l15x_i2c
     00009522  A$I2C__InitInit$194                stm8l15x_i2c
     00009523  A$I2C__InitInit$195                stm8l15x_i2c
     00009524  A$I2C__InitInit$196                stm8l15x_i2c
     00009525  A$I2C__InitInit$197                stm8l15x_i2c
     00009526  A$I2C__InitInit$198                stm8l15x_i2c
     00009528  A$I2C__InitInit$199                stm8l15x_i2c
     0000952A  A$I2C__InitInit$200                stm8l15x_i2c
     0000952B  A$I2C__InitInit$201                stm8l15x_i2c
     0000952D  A$I2C__InitInit$202                stm8l15x_i2c
     0000952E  A$I2C__InitInit$203                stm8l15x_i2c
     00009531  A$I2C__InitInit$204                stm8l15x_i2c
     00009533  A$I2C__InitInit$205                stm8l15x_i2c
     00009535  A$I2C__InitInit$206                stm8l15x_i2c
     00009537  A$I2C__InitInit$209                stm8l15x_i2c
     00009537  C$stm8l15x_i2c.c$237$3_0$599       stm8l15x_i2c
     00009539  A$I2C__InitInit$210                stm8l15x_i2c
     0000953B  A$I2C__InitInit$214                stm8l15x_i2c
     0000953B  C$stm8l15x_i2c.c$241$2_0$597       stm8l15x_i2c
     0000953D  A$I2C__InitInit$215                stm8l15x_i2c
     00009540  A$I2C__InitInit$216                stm8l15x_i2c
     00009542  A$I2C__InitInit$217                stm8l15x_i2c
     00009544  A$I2C__InitInit$218                stm8l15x_i2c
     00009546  A$I2C__InitInit$219                stm8l15x_i2c
     00009548  A$I2C__InitInit$220                stm8l15x_i2c
     0000954A  A$I2C__InitInit$223                stm8l15x_i2c
     0000954A  C$stm8l15x_i2c.c$244$3_0$600       stm8l15x_i2c
     0000954D  A$I2C__InitInit$224                stm8l15x_i2c
     0000954F  A$I2C__InitInit$225                stm8l15x_i2c
     00009550  A$I2C__InitInit$226                stm8l15x_i2c
     00009552  A$I2C__InitInit$230                stm8l15x_i2c
     00009552  C$stm8l15x_i2c.c$250$2_0$597       stm8l15x_i2c
     00009554  A$I2C__InitInit$231                stm8l15x_i2c
     00009555  A$I2C__InitInit$232                stm8l15x_i2c
     00009556  A$I2C__InitInit$233                stm8l15x_i2c
     00009557  A$I2C__InitInit$234                stm8l15x_i2c
     00009558  A$I2C__InitInit$235                stm8l15x_i2c
     0000955B  A$I2C__InitInit$236                stm8l15x_i2c
     0000955D  A$I2C__InitInit$237                stm8l15x_i2c
     0000955F  A$I2C__InitInit$238                stm8l15x_i2c
     00009561  A$I2C__InitInit$239                stm8l15x_i2c
     00009562  A$I2C__InitInit$240                stm8l15x_i2c
ASxxxx Linker V03.00 + NoICE + sdld,  page 77.
Hexadecimal  [32-Bits]

Area                                    Addr        Size        Decimal Bytes (Attributes)
--------------------------------        ----        ----        ------- ----- ------------
CODE                                00008306    000019D2 =        6610. bytes (REL,CON)

      Value  Global                              Global Defined In Module
      -----  --------------------------------   ------------------------
     00009565  A$I2C__InitInit$241                stm8l15x_i2c
     00009567  A$I2C__InitInit$242                stm8l15x_i2c
     00009568  A$I2C__InitInit$243                stm8l15x_i2c
     00009569  A$I2C__InitInit$246                stm8l15x_i2c
     00009569  C$stm8l15x_i2c.c$251$2_0$597       stm8l15x_i2c
     0000956B  A$I2C__InitInit$247                stm8l15x_i2c
     0000956C  A$I2C__InitInit$248                stm8l15x_i2c
     0000956E  A$I2C__InitInit$252                stm8l15x_i2c
     0000956E  C$stm8l15x_i2c.c$258$2_0$601       stm8l15x_i2c
     00009570  A$I2C__InitInit$253                stm8l15x_i2c
     00009572  A$I2C__InitInit$254                stm8l15x_i2c
     00009573  A$I2C__InitInit$255                stm8l15x_i2c
     00009575  A$I2C__InitInit$256                stm8l15x_i2c
     00009576  A$I2C__InitInit$257                stm8l15x_i2c
     00009578  A$I2C__InitInit$258                stm8l15x_i2c
     0000957A  A$I2C__InitInit$259                stm8l15x_i2c
     0000957B  A$I2C__InitInit$260                stm8l15x_i2c
     0000957D  A$I2C__InitInit$261                stm8l15x_i2c
     0000957E  A$I2C__InitInit$262                stm8l15x_i2c
     00009581  A$I2C__InitInit$263                stm8l15x_i2c
     00009583  A$I2C__InitInit$264                stm8l15x_i2c
     00009585  A$I2C__InitInit$265                stm8l15x_i2c
     00009587  A$I2C__InitInit$266                stm8l15x_i2c
     00009589  A$I2C__InitInit$269                stm8l15x_i2c
     00009589  C$stm8l15x_i2c.c$261$2_0$601       stm8l15x_i2c
     0000958B  A$I2C__InitInit$270                stm8l15x_i2c
     0000958E  A$I2C__InitInit$271                stm8l15x_i2c
     00009590  A$I2C__InitInit$272                stm8l15x_i2c
     00009592  A$I2C__InitInit$273                stm8l15x_i2c
     00009594  A$I2C__InitInit$274                stm8l15x_i2c
     00009596  A$I2C__InitInit$275                stm8l15x_i2c
     00009598  A$I2C__InitInit$278                stm8l15x_i2c
     00009598  C$stm8l15x_i2c.c$264$3_0$602       stm8l15x_i2c
     0000959B  A$I2C__InitInit$279                stm8l15x_i2c
     0000959D  A$I2C__InitInit$280                stm8l15x_i2c
     0000959E  A$I2C__InitInit$281                stm8l15x_i2c
     000095A0  A$I2C__InitInit$285                stm8l15x_i2c
     000095A0  C$stm8l15x_i2c.c$270$2_0$601       stm8l15x_i2c
     000095A2  A$I2C__InitInit$286                stm8l15x_i2c
     000095A3  A$I2C__InitInit$287                stm8l15x_i2c
     000095A5  A$I2C__InitInit$288                stm8l15x_i2c
     000095A6  A$I2C__InitInit$292                stm8l15x_i2c
     000095A6  C$stm8l15x_i2c.c$275$1_0$596       stm8l15x_i2c
     000095A8  A$I2C__InitInit$293                stm8l15x_i2c
     000095AA  A$I2C__InitInit$294                stm8l15x_i2c
     000095AB  A$I2C__InitInit$297                stm8l15x_i2c
     000095AB  C$stm8l15x_i2c.c$276$1_0$596       stm8l15x_i2c
     000095AD  A$I2C__InitInit$298                stm8l15x_i2c
     000095AE  A$I2C__InitInit$299                stm8l15x_i2c
     000095B0  A$I2C__InitInit$300                stm8l15x_i2c
     000095B2  A$I2C__InitInit$301                stm8l15x_i2c
ASxxxx Linker V03.00 + NoICE + sdld,  page 78.
Hexadecimal  [32-Bits]

Area                                    Addr        Size        Decimal Bytes (Attributes)
--------------------------------        ----        ----        ------- ----- ------------
CODE                                00008306    000019D2 =        6610. bytes (REL,CON)

      Value  Global                              Global Defined In Module
      -----  --------------------------------   ------------------------
     000095B4  A$I2C__InitInit$302                stm8l15x_i2c
     000095B5  A$I2C__InitInit$305                stm8l15x_i2c
     000095B5  C$stm8l15x_i2c.c$279$1_0$596       stm8l15x_i2c
     000095B7  A$I2C__InitInit$306                stm8l15x_i2c
     000095B8  A$I2C__InitInit$307                stm8l15x_i2c
     000095BA  A$I2C__InitInit$308                stm8l15x_i2c
     000095BC  A$I2C__InitInit$309                stm8l15x_i2c
     000095BE  A$I2C__InitInit$310                stm8l15x_i2c
     000095C0  A$I2C__InitInit$311                stm8l15x_i2c
     000095C2  A$I2C__InitInit$312                stm8l15x_i2c
     000095C3  A$I2C__InitInit$315                stm8l15x_i2c
     000095C3  C$stm8l15x_i2c.c$282$1_0$596       stm8l15x_i2c
     000095C5  A$I2C__InitInit$316                stm8l15x_i2c
     000095C6  A$I2C__InitInit$317                stm8l15x_i2c
     000095C7  A$I2C__InitInit$318                stm8l15x_i2c
     000095C9  A$I2C__InitInit$319                stm8l15x_i2c
     000095CA  A$I2C__InitInit$322                stm8l15x_i2c
     000095CA  C$stm8l15x_i2c.c$285$1_0$596       stm8l15x_i2c
     000095CC  A$I2C__InitInit$323                stm8l15x_i2c
     000095CE  A$I2C__InitInit$324                stm8l15x_i2c
     000095D0  A$I2C__InitInit$327                stm8l15x_i2c
     000095D0  C$stm8l15x_i2c.c$286$1_0$596       stm8l15x_i2c
     000095D2  A$I2C__InitInit$328                stm8l15x_i2c
     000095D6  A$I2C__InitInit$329                stm8l15x_i2c
     000095D8  A$I2C__InitInit$330                stm8l15x_i2c
     000095DA  A$I2C__InitInit$331                stm8l15x_i2c
     000095DC  A$I2C__InitInit$332                stm8l15x_i2c
     000095DD  A$I2C__InitInit$333                stm8l15x_i2c
     000095DE  A$I2C__InitInit$334                stm8l15x_i2c
     000095E0  A$I2C__InitInit$335                stm8l15x_i2c
     000095E2  A$I2C__InitInit$336                stm8l15x_i2c
     000095E3  A$I2C__InitInit$337                stm8l15x_i2c
     000095E5  A$I2C__InitInit$338                stm8l15x_i2c
     000095E6  A$I2C__InitInit$339                stm8l15x_i2c
     000095E7  A$I2C__InitInit$340                stm8l15x_i2c
     000095E9  A$I2C__InitInit$341                stm8l15x_i2c
     000095EB  A$I2C__InitInit$344                stm8l15x_i2c
     000095ED  A$I2C__InitInit$347                stm8l15x_i2c
     000095ED  C$stm8l15x_i2c.c$288$1_0$596       stm8l15x_i2c
     000095ED  XG$I2C_Init$0$0                    stm8l15x_i2c
     000095EE  A$PWR__UltraLowPowerCmdrCmd$58     stm8l15x_pwr
     000095EE  C$stm8l15x_pwr.c$198$0_0$596       stm8l15x_pwr
     000095EE  C$stm8l15x_pwr.c$206$1_0$596       stm8l15x_pwr
     000095EE  G$PWR_UltraLowPowerCmd$0$0         stm8l15x_pwr
     000095EE  _PWR_UltraLowPowerCmd              stm8l15x_pwr
     000095F1  A$PWR__UltraLowPowerCmdrCmd$61     stm8l15x_pwr
     000095F1  C$stm8l15x_pwr.c$203$1_0$596       stm8l15x_pwr
     000095F3  A$PWR__UltraLowPowerCmdrCmd$62     stm8l15x_pwr
     000095F5  A$PWR__UltraLowPowerCmdrCmd$65     stm8l15x_pwr
     000095F5  C$stm8l15x_pwr.c$206$2_0$597       stm8l15x_pwr
     000095F7  A$PWR__UltraLowPowerCmdrCmd$66     stm8l15x_pwr
ASxxxx Linker V03.00 + NoICE + sdld,  page 79.
Hexadecimal  [32-Bits]

Area                                    Addr        Size        Decimal Bytes (Attributes)
--------------------------------        ----        ----        ------- ----- ------------
CODE                                00008306    000019D2 =        6610. bytes (REL,CON)

      Value  Global                              Global Defined In Module
      -----  --------------------------------   ------------------------
     000095FA  A$PWR__UltraLowPowerCmdrCmd$67     stm8l15x_pwr
     000095FC  A$PWR__UltraLowPowerCmdrCmd$71     stm8l15x_pwr
     000095FC  C$stm8l15x_pwr.c$211$2_0$598       stm8l15x_pwr
     000095FE  A$PWR__UltraLowPowerCmdrCmd$72     stm8l15x_pwr
     00009601  A$PWR__UltraLowPowerCmdrCmd$78     stm8l15x_pwr
     00009601  C$stm8l15x_pwr.c$213$1_0$596       stm8l15x_pwr
     00009601  XG$PWR_UltraLowPowerCmd$0$0        stm8l15x_pwr
     00009602  A$ADC__ChannelCmdlCmd$56           stm8l15x_adc
     00009602  C$stm8l15x_adc.c$594$0_0$596       stm8l15x_adc
     00009602  G$ADC_ChannelCmd$0$0               stm8l15x_adc
     00009602  _ADC_ChannelCmd                    stm8l15x_adc
     00009603  A$ADC__ChannelCmdlCmd$59           stm8l15x_adc
     00009603  C$stm8l15x_adc.c$600$1_0$596       stm8l15x_adc
     00009605  A$ADC__ChannelCmdlCmd$62           stm8l15x_adc
     00009605  C$stm8l15x_adc.c$605$1_0$596       stm8l15x_adc
     00009607  A$ADC__ChannelCmdlCmd$63           stm8l15x_adc
     00009609  A$ADC__ChannelCmdlCmd$64           stm8l15x_adc
     0000960C  A$ADC__ChannelCmdlCmd$65           stm8l15x_adc
     0000960E  A$ADC__ChannelCmdlCmd$66           stm8l15x_adc
     0000960F  A$ADC__ChannelCmdlCmd$67           stm8l15x_adc
     00009610  A$ADC__ChannelCmdlCmd$68           stm8l15x_adc
     00009612  A$ADC__ChannelCmdlCmd$69           stm8l15x_adc
     00009613  A$ADC__ChannelCmdlCmd$70           stm8l15x_adc
     00009616  A$ADC__ChannelCmdlCmd$71           stm8l15x_adc
     00009617  A$ADC__ChannelCmdlCmd$72           stm8l15x_adc
     00009618  A$ADC__ChannelCmdlCmd$73           stm8l15x_adc
     0000961A  A$ADC__ChannelCmdlCmd$74           stm8l15x_adc
     0000961B  A$ADC__ChannelCmdlCmd$77           stm8l15x_adc
     0000961B  C$stm8l15x_adc.c$602$1_0$596       stm8l15x_adc
     0000961D  A$ADC__ChannelCmdlCmd$78           stm8l15x_adc
     0000961F  A$ADC__ChannelCmdlCmd$81           stm8l15x_adc
     0000961F  C$stm8l15x_adc.c$605$2_0$597       stm8l15x_adc
     00009621  A$ADC__ChannelCmdlCmd$82           stm8l15x_adc
     00009622  A$ADC__ChannelCmdlCmd$83           stm8l15x_adc
     00009624  A$ADC__ChannelCmdlCmd$87           stm8l15x_adc
     00009624  C$stm8l15x_adc.c$610$2_0$598       stm8l15x_adc
     00009625  A$ADC__ChannelCmdlCmd$88           stm8l15x_adc
     00009627  A$ADC__ChannelCmdlCmd$89           stm8l15x_adc
     00009628  A$ADC__ChannelCmdlCmd$93           stm8l15x_adc
     00009629  A$ADC__ChannelCmdlCmd$96           stm8l15x_adc
     00009629  C$stm8l15x_adc.c$612$1_0$596       stm8l15x_adc
     00009629  XG$ADC_ChannelCmd$0$0              stm8l15x_adc
     0000962A  A$FLASH__Unlocklock$58             stm8l15x_flash
     0000962A  C$stm8l15x_flash.c$280$0_0$596     stm8l15x_flash
     0000962A  C$stm8l15x_flash.c$286$1_0$596     stm8l15x_flash
     0000962A  G$FLASH_Unlock$0$0                 stm8l15x_flash
     0000962A  _FLASH_Unlock                      stm8l15x_flash
     0000962C  A$FLASH__Unlocklock$59             stm8l15x_flash
     0000962E  A$FLASH__Unlocklock$60             stm8l15x_flash
     00009630  A$FLASH__Unlocklock$63             stm8l15x_flash
     00009630  C$stm8l15x_flash.c$288$2_0$597     stm8l15x_flash
ASxxxx Linker V03.00 + NoICE + sdld,  page 80.
Hexadecimal  [32-Bits]

Area                                    Addr        Size        Decimal Bytes (Attributes)
--------------------------------        ----        ----        ------- ----- ------------
CODE                                00008306    000019D2 =        6610. bytes (REL,CON)

      Value  Global                              Global Defined In Module
      -----  --------------------------------   ------------------------
     00009634  A$FLASH__Unlocklock$66             stm8l15x_flash
     00009634  C$stm8l15x_flash.c$289$2_0$597     stm8l15x_flash
     00009638  A$FLASH__Unlocklock$70             stm8l15x_flash
     00009638  C$stm8l15x_flash.c$293$1_0$596     stm8l15x_flash
     0000963A  A$FLASH__Unlocklock$71             stm8l15x_flash
     0000963C  A$FLASH__Unlocklock$72             stm8l15x_flash
     0000963E  A$FLASH__Unlocklock$75             stm8l15x_flash
     0000963E  C$stm8l15x_flash.c$295$2_0$598     stm8l15x_flash
     00009642  A$FLASH__Unlocklock$78             stm8l15x_flash
     00009642  C$stm8l15x_flash.c$296$2_0$598     stm8l15x_flash
     00009646  A$FLASH__Unlocklock$84             stm8l15x_flash
     00009646  C$stm8l15x_flash.c$298$1_0$596     stm8l15x_flash
     00009646  XG$FLASH_Unlock$0$0                stm8l15x_flash
     00009647  A$ADC__Cmd_Cmd$58                  stm8l15x_adc
     00009647  C$stm8l15x_adc.c$219$0_0$596       stm8l15x_adc
     00009647  C$stm8l15x_adc.c$228$1_0$596       stm8l15x_adc
     00009647  G$ADC_Cmd$0$0                      stm8l15x_adc
     00009647  _ADC_Cmd                           stm8l15x_adc
     00009649  A$ADC__Cmd_Cmd$59                  stm8l15x_adc
     0000964A  A$ADC__Cmd_Cmd$62                  stm8l15x_adc
     0000964A  C$stm8l15x_adc.c$225$1_0$596       stm8l15x_adc
     0000964C  A$ADC__Cmd_Cmd$63                  stm8l15x_adc
     0000964E  A$ADC__Cmd_Cmd$66                  stm8l15x_adc
     0000964E  C$stm8l15x_adc.c$228$2_0$597       stm8l15x_adc
     00009650  A$ADC__Cmd_Cmd$67                  stm8l15x_adc
     00009651  A$ADC__Cmd_Cmd$68                  stm8l15x_adc
     00009653  A$ADC__Cmd_Cmd$72                  stm8l15x_adc
     00009653  C$stm8l15x_adc.c$233$2_0$598       stm8l15x_adc
     00009655  A$ADC__Cmd_Cmd$73                  stm8l15x_adc
     00009656  A$ADC__Cmd_Cmd$79                  stm8l15x_adc
     00009656  C$stm8l15x_adc.c$235$1_0$596       stm8l15x_adc
     00009656  XG$ADC_Cmd$0$0                     stm8l15x_adc
     00009657  A$ADC__InitInit$56                 stm8l15x_adc
     00009657  C$stm8l15x_adc.c$188$0_0$596       stm8l15x_adc
     00009657  G$ADC_Init$0$0                     stm8l15x_adc
     00009657  _ADC_Init                          stm8l15x_adc
     00009658  A$ADC__InitInit$59                 stm8l15x_adc
     00009658  C$stm8l15x_adc.c$199$1_0$596       stm8l15x_adc
     0000965A  A$ADC__InitInit$60                 stm8l15x_adc
     0000965B  A$ADC__InitInit$61                 stm8l15x_adc
     0000965D  A$ADC__InitInit$62                 stm8l15x_adc
     0000965F  A$ADC__InitInit$63                 stm8l15x_adc
     00009660  A$ADC__InitInit$66                 stm8l15x_adc
     00009660  C$stm8l15x_adc.c$202$1_0$596       stm8l15x_adc
     00009661  A$ADC__InitInit$67                 stm8l15x_adc
     00009663  A$ADC__InitInit$68                 stm8l15x_adc
     00009665  A$ADC__InitInit$69                 stm8l15x_adc
     00009667  A$ADC__InitInit$70                 stm8l15x_adc
     00009668  A$ADC__InitInit$73                 stm8l15x_adc
     00009668  C$stm8l15x_adc.c$205$1_0$596       stm8l15x_adc
     00009669  A$ADC__InitInit$74                 stm8l15x_adc
ASxxxx Linker V03.00 + NoICE + sdld,  page 81.
Hexadecimal  [32-Bits]

Area                                    Addr        Size        Decimal Bytes (Attributes)
--------------------------------        ----        ----        ------- ----- ------------
CODE                                00008306    000019D2 =        6610. bytes (REL,CON)

      Value  Global                              Global Defined In Module
      -----  --------------------------------   ------------------------
     0000966A  A$ADC__InitInit$75                 stm8l15x_adc
     0000966C  A$ADC__InitInit$76                 stm8l15x_adc
     0000966D  A$ADC__InitInit$79                 stm8l15x_adc
     0000966D  C$stm8l15x_adc.c$208$1_0$596       stm8l15x_adc
     0000966E  A$ADC__InitInit$80                 stm8l15x_adc
     0000966F  A$ADC__InitInit$81                 stm8l15x_adc
     00009670  A$ADC__InitInit$82                 stm8l15x_adc
     00009672  A$ADC__InitInit$83                 stm8l15x_adc
     00009673  A$ADC__InitInit$86                 stm8l15x_adc
     00009674  A$ADC__InitInit$89                 stm8l15x_adc
     00009674  C$stm8l15x_adc.c$209$1_0$596       stm8l15x_adc
     00009674  XG$ADC_Init$0$0                    stm8l15x_adc
     00009675  A$RTC__ITConfignfig$56             stm8l15x_rtc
     00009675  C$stm8l15x_rtc.c$2106$0_0$598      stm8l15x_rtc
     00009675  G$RTC_ITConfig$0$0                 stm8l15x_rtc
     00009675  _RTC_ITConfig                      stm8l15x_rtc
     00009676  A$RTC__ITConfignfig$59             stm8l15x_rtc
     00009676  C$stm8l15x_rtc.c$2113$1_0$598      stm8l15x_rtc
     0000967A  A$RTC__ITConfignfig$62             stm8l15x_rtc
     0000967A  C$stm8l15x_rtc.c$2114$1_0$598      stm8l15x_rtc
     0000967E  A$RTC__ITConfignfig$65             stm8l15x_rtc
     0000967E  C$stm8l15x_rtc.c$2119$1_0$598      stm8l15x_rtc
     00009681  A$RTC__ITConfignfig$66             stm8l15x_rtc
     00009683  A$RTC__ITConfignfig$67             stm8l15x_rtc
     00009685  A$RTC__ITConfignfig$68             stm8l15x_rtc
     00009686  A$RTC__ITConfignfig$69             stm8l15x_rtc
     00009688  A$RTC__ITConfignfig$72             stm8l15x_rtc
     00009688  C$stm8l15x_rtc.c$2120$1_0$598      stm8l15x_rtc
     00009689  A$RTC__ITConfignfig$73             stm8l15x_rtc
     0000968A  A$RTC__ITConfignfig$74             stm8l15x_rtc
     0000968C  A$RTC__ITConfignfig$75             stm8l15x_rtc
     0000968E  A$RTC__ITConfignfig$76             stm8l15x_rtc
     0000968F  A$RTC__ITConfignfig$79             stm8l15x_rtc
     0000968F  C$stm8l15x_rtc.c$2116$1_0$598      stm8l15x_rtc
     00009691  A$RTC__ITConfignfig$80             stm8l15x_rtc
     00009693  A$RTC__ITConfignfig$83             stm8l15x_rtc
     00009693  C$stm8l15x_rtc.c$2119$2_0$599      stm8l15x_rtc
     00009695  A$RTC__ITConfignfig$84             stm8l15x_rtc
     00009698  A$RTC__ITConfignfig$87             stm8l15x_rtc
     00009698  C$stm8l15x_rtc.c$2120$2_0$599      stm8l15x_rtc
     0000969B  A$RTC__ITConfignfig$88             stm8l15x_rtc
     0000969D  A$RTC__ITConfignfig$89             stm8l15x_rtc
     000096A0  A$RTC__ITConfignfig$90             stm8l15x_rtc
     000096A2  A$RTC__ITConfignfig$94             stm8l15x_rtc
     000096A2  C$stm8l15x_rtc.c$2125$2_0$600      stm8l15x_rtc
     000096A3  A$RTC__ITConfignfig$95             stm8l15x_rtc
     000096A5  A$RTC__ITConfignfig$96             stm8l15x_rtc
     000096A8  A$RTC__ITConfignfig$99             stm8l15x_rtc
     000096A8  C$stm8l15x_rtc.c$2126$2_0$600      stm8l15x_rtc
     000096AB  A$RTC__ITConfignfig$100            stm8l15x_rtc
     000096AD  A$RTC__ITConfignfig$101            stm8l15x_rtc
ASxxxx Linker V03.00 + NoICE + sdld,  page 82.
Hexadecimal  [32-Bits]

Area                                    Addr        Size        Decimal Bytes (Attributes)
--------------------------------        ----        ----        ------- ----- ------------
CODE                                00008306    000019D2 =        6610. bytes (REL,CON)

      Value  Global                              Global Defined In Module
      -----  --------------------------------   ------------------------
     000096AF  A$RTC__ITConfignfig$102            stm8l15x_rtc
     000096B0  A$RTC__ITConfignfig$103            stm8l15x_rtc
     000096B2  A$RTC__ITConfignfig$104            stm8l15x_rtc
     000096B5  A$RTC__ITConfignfig$108            stm8l15x_rtc
     000096B5  C$stm8l15x_rtc.c$2130$1_0$598      stm8l15x_rtc
     000096B9  A$RTC__ITConfignfig$111            stm8l15x_rtc
     000096BA  A$RTC__ITConfignfig$114            stm8l15x_rtc
     000096BA  C$stm8l15x_rtc.c$2131$1_0$598      stm8l15x_rtc
     000096BA  XG$RTC_ITConfig$0$0                stm8l15x_rtc
     000096BB  A$EXTI__ClearITPendingBitgBit$58   stm8l15x_exti
     000096BB  C$stm8l15x_exti.c$533$0_0$596      stm8l15x_exti
     000096BB  C$stm8l15x_exti.c$540$1_0$596      stm8l15x_exti
     000096BB  G$EXTI_ClearITPendingBit$0$0       stm8l15x_exti
     000096BB  _EXTI_ClearITPendingBit            stm8l15x_exti
     000096BD  A$EXTI__ClearITPendingBitgBit$59   stm8l15x_exti
     000096BE  A$EXTI__ClearITPendingBitgBit$62   stm8l15x_exti
     000096BE  C$stm8l15x_exti.c$542$1_0$596      stm8l15x_exti
     000096BF  A$EXTI__ClearITPendingBitgBit$63   stm8l15x_exti
     000096C2  A$EXTI__ClearITPendingBitgBit$64   stm8l15x_exti
     000096C4  A$EXTI__ClearITPendingBitgBit$67   stm8l15x_exti
     000096C4  C$stm8l15x_exti.c$544$2_0$597      stm8l15x_exti
     000096C6  A$EXTI__ClearITPendingBitgBit$68   stm8l15x_exti
     000096C9  A$EXTI__ClearITPendingBitgBit$69   stm8l15x_exti
     000096CB  A$EXTI__ClearITPendingBitgBit$73   stm8l15x_exti
     000096CB  C$stm8l15x_exti.c$548$2_0$598      stm8l15x_exti
     000096CD  A$EXTI__ClearITPendingBitgBit$74   stm8l15x_exti
     000096D0  A$EXTI__ClearITPendingBitgBit$80   stm8l15x_exti
     000096D0  C$stm8l15x_exti.c$550$1_0$596      stm8l15x_exti
     000096D0  XG$EXTI_ClearITPendingBit$0$0      stm8l15x_exti
     000096D1  A$USART__Cmd_Cmd$58                stm8l15x_usart
     000096D1  C$stm8l15x_usart.c$300$0_0$596     stm8l15x_usart
     000096D1  C$stm8l15x_usart.c$304$1_0$596     stm8l15x_usart
     000096D1  G$USART_Cmd$0$0                    stm8l15x_usart
     000096D1  _USART_Cmd                         stm8l15x_usart
     000096D3  A$USART__Cmd_Cmd$59                stm8l15x_usart
     000096D6  A$USART__Cmd_Cmd$60                stm8l15x_usart
     000096D7  A$USART__Cmd_Cmd$63                stm8l15x_usart
     000096D7  C$stm8l15x_usart.c$302$1_0$596     stm8l15x_usart
     000096D9  A$USART__Cmd_Cmd$64                stm8l15x_usart
     000096DB  A$USART__Cmd_Cmd$67                stm8l15x_usart
     000096DB  C$stm8l15x_usart.c$304$2_0$597     stm8l15x_usart
     000096DD  A$USART__Cmd_Cmd$68                stm8l15x_usart
     000096DE  A$USART__Cmd_Cmd$69                stm8l15x_usart
     000096E0  A$USART__Cmd_Cmd$73                stm8l15x_usart
     000096E0  C$stm8l15x_usart.c$308$2_0$598     stm8l15x_usart
     000096E2  A$USART__Cmd_Cmd$74                stm8l15x_usart
     000096E3  A$USART__Cmd_Cmd$80                stm8l15x_usart
     000096E3  C$stm8l15x_usart.c$310$1_0$596     stm8l15x_usart
     000096E3  XG$USART_Cmd$0$0                   stm8l15x_usart
     000096E4  A$USART__InitInit$57               stm8l15x_usart
     000096E4  C$stm8l15x_usart.c$194$0_0$596     stm8l15x_usart
ASxxxx Linker V03.00 + NoICE + sdld,  page 83.
Hexadecimal  [32-Bits]

Area                                    Addr        Size        Decimal Bytes (Attributes)
--------------------------------        ----        ----        ------- ----- ------------
CODE                                00008306    000019D2 =        6610. bytes (REL,CON)

      Value  Global                              Global Defined In Module
      -----  --------------------------------   ------------------------
     000096E4  G$USART_Init$0$0                   stm8l15x_usart
     000096E4  _USART_Init                        stm8l15x_usart
     000096E6  A$USART__InitInit$60               stm8l15x_usart
     000096E6  C$stm8l15x_usart.c$212$1_0$596     stm8l15x_usart
     000096E8  A$USART__InitInit$61               stm8l15x_usart
     000096EA  A$USART__InitInit$62               stm8l15x_usart
     000096EB  A$USART__InitInit$63               stm8l15x_usart
     000096EE  A$USART__InitInit$64               stm8l15x_usart
     000096EF  A$USART__InitInit$65               stm8l15x_usart
     000096F1  A$USART__InitInit$66               stm8l15x_usart
     000096F3  A$USART__InitInit$67               stm8l15x_usart
     000096F4  A$USART__InitInit$70               stm8l15x_usart
     000096F4  C$stm8l15x_usart.c$215$1_0$596     stm8l15x_usart
     000096F5  A$USART__InitInit$71               stm8l15x_usart
     000096F7  A$USART__InitInit$72               stm8l15x_usart
     000096F9  A$USART__InitInit$73               stm8l15x_usart
     000096FB  A$USART__InitInit$74               stm8l15x_usart
     000096FC  A$USART__InitInit$77               stm8l15x_usart
     000096FC  C$stm8l15x_usart.c$218$1_0$596     stm8l15x_usart
     000096FE  A$USART__InitInit$78               stm8l15x_usart
     00009701  A$USART__InitInit$79               stm8l15x_usart
     00009702  A$USART__InitInit$80               stm8l15x_usart
     00009704  A$USART__InitInit$81               stm8l15x_usart
     00009705  A$USART__InitInit$84               stm8l15x_usart
     00009705  C$stm8l15x_usart.c$220$1_0$596     stm8l15x_usart
     00009706  A$USART__InitInit$85               stm8l15x_usart
     00009707  A$USART__InitInit$86               stm8l15x_usart
     00009708  A$USART__InitInit$87               stm8l15x_usart
     0000970A  A$USART__InitInit$88               stm8l15x_usart
     0000970B  A$USART__InitInit$91               stm8l15x_usart
     0000970B  C$stm8l15x_usart.c$223$1_0$596     stm8l15x_usart
     0000970D  A$USART__InitInit$92               stm8l15x_usart
     0000970E  A$USART__InitInit$93               stm8l15x_usart
     0000970F  A$USART__InitInit$94               stm8l15x_usart
     00009711  A$USART__InitInit$95               stm8l15x_usart
     00009712  A$USART__InitInit$96               stm8l15x_usart
     00009714  A$USART__InitInit$97               stm8l15x_usart
     00009715  A$USART__InitInit$100              stm8l15x_usart
     00009715  C$stm8l15x_usart.c$225$1_0$596     stm8l15x_usart
     00009717  A$USART__InitInit$101              stm8l15x_usart
     0000971A  A$USART__InitInit$102              stm8l15x_usart
     0000971C  A$USART__InitInit$103              stm8l15x_usart
     0000971D  A$USART__InitInit$104              stm8l15x_usart
     0000971F  A$USART__InitInit$105              stm8l15x_usart
     00009721  A$USART__InitInit$106              stm8l15x_usart
     00009722  A$USART__InitInit$109              stm8l15x_usart
     00009722  C$stm8l15x_usart.c$227$1_0$596     stm8l15x_usart
     00009724  A$USART__InitInit$110              stm8l15x_usart
     00009725  A$USART__InitInit$111              stm8l15x_usart
     00009726  A$USART__InitInit$112              stm8l15x_usart
     00009727  A$USART__InitInit$113              stm8l15x_usart
ASxxxx Linker V03.00 + NoICE + sdld,  page 84.
Hexadecimal  [32-Bits]

Area                                    Addr        Size        Decimal Bytes (Attributes)
--------------------------------        ----        ----        ------- ----- ------------
CODE                                00008306    000019D2 =        6610. bytes (REL,CON)

      Value  Global                              Global Defined In Module
      -----  --------------------------------   ------------------------
     00009729  A$USART__InitInit$114              stm8l15x_usart
     0000972B  A$USART__InitInit$115              stm8l15x_usart
     0000972C  A$USART__InitInit$118              stm8l15x_usart
     0000972C  C$stm8l15x_usart.c$229$1_0$596     stm8l15x_usart
     0000972F  A$USART__InitInit$119              stm8l15x_usart
     00009731  A$USART__InitInit$120              stm8l15x_usart
     00009733  A$USART__InitInit$121              stm8l15x_usart
     00009734  A$USART__InitInit$122              stm8l15x_usart
     00009736  A$USART__InitInit$123              stm8l15x_usart
     00009737  A$USART__InitInit$124              stm8l15x_usart
     00009739  A$USART__InitInit$125              stm8l15x_usart
     0000973A  A$USART__InitInit$126              stm8l15x_usart
     0000973C  A$USART__InitInit$127              stm8l15x_usart
     0000973F  A$USART__InitInit$128              stm8l15x_usart
     00009741  A$USART__InitInit$129              stm8l15x_usart
     00009743  A$USART__InitInit$130              stm8l15x_usart
     00009745  A$USART__InitInit$133              stm8l15x_usart
     00009745  C$stm8l15x_usart.c$231$1_0$596     stm8l15x_usart
     00009747  A$USART__InitInit$134              stm8l15x_usart
     00009749  A$USART__InitInit$135              stm8l15x_usart
     0000974B  A$USART__InitInit$136              stm8l15x_usart
     0000974D  A$USART__InitInit$137              stm8l15x_usart
     0000974F  A$USART__InitInit$138              stm8l15x_usart
     00009751  A$USART__InitInit$139              stm8l15x_usart
     00009752  A$USART__InitInit$142              stm8l15x_usart
     00009752  C$stm8l15x_usart.c$233$1_0$596     stm8l15x_usart
     00009754  A$USART__InitInit$143              stm8l15x_usart
     00009755  A$USART__InitInit$144              stm8l15x_usart
     00009757  A$USART__InitInit$145              stm8l15x_usart
     00009759  A$USART__InitInit$146              stm8l15x_usart
     0000975B  A$USART__InitInit$147              stm8l15x_usart
     0000975D  A$USART__InitInit$148              stm8l15x_usart
     0000975E  A$USART__InitInit$151              stm8l15x_usart
     0000975E  C$stm8l15x_usart.c$235$1_0$596     stm8l15x_usart
     0000975F  A$USART__InitInit$152              stm8l15x_usart
     00009761  A$USART__InitInit$153              stm8l15x_usart
     00009762  A$USART__InitInit$154              stm8l15x_usart
     00009763  A$USART__InitInit$155              stm8l15x_usart
     00009765  A$USART__InitInit$156              stm8l15x_usart
     00009766  A$USART__InitInit$159              stm8l15x_usart
     00009766  C$stm8l15x_usart.c$238$1_0$596     stm8l15x_usart
     00009768  A$USART__InitInit$160              stm8l15x_usart
     0000976B  A$USART__InitInit$161              stm8l15x_usart
     0000976C  A$USART__InitInit$162              stm8l15x_usart
     0000976E  A$USART__InitInit$163              stm8l15x_usart
     0000976F  A$USART__InitInit$166              stm8l15x_usart
     0000976F  C$stm8l15x_usart.c$240$1_0$596     stm8l15x_usart
     00009770  A$USART__InitInit$167              stm8l15x_usart
     00009771  A$USART__InitInit$168              stm8l15x_usart
     00009772  A$USART__InitInit$169              stm8l15x_usart
     00009774  A$USART__InitInit$170              stm8l15x_usart
ASxxxx Linker V03.00 + NoICE + sdld,  page 85.
Hexadecimal  [32-Bits]

Area                                    Addr        Size        Decimal Bytes (Attributes)
--------------------------------        ----        ----        ------- ----- ------------
CODE                                00008306    000019D2 =        6610. bytes (REL,CON)

      Value  Global                              Global Defined In Module
      -----  --------------------------------   ------------------------
     00009775  A$USART__InitInit$173              stm8l15x_usart
     00009777  A$USART__InitInit$176              stm8l15x_usart
     00009777  C$stm8l15x_usart.c$241$1_0$596     stm8l15x_usart
     00009777  XG$USART_Init$0$0                  stm8l15x_usart
     00009778  __divslong                         
     0000979F  A$ADC__GetFlagStatusatus$58        stm8l15x_adc
     0000979F  C$stm8l15x_adc.c$876$0_0$596       stm8l15x_adc
     0000979F  C$stm8l15x_adc.c$884$1_0$596       stm8l15x_adc
     0000979F  G$ADC_GetFlagStatus$0$0            stm8l15x_adc
     0000979F  _ADC_GetFlagStatus                 stm8l15x_adc
     000097A1  A$ADC__GetFlagStatusatus$59        stm8l15x_adc
     000097A3  A$ADC__GetFlagStatusatus$60        stm8l15x_adc
     000097A5  A$ADC__GetFlagStatusatus$61        stm8l15x_adc
     000097A7  A$ADC__GetFlagStatusatus$64        stm8l15x_adc
     000097A7  C$stm8l15x_adc.c$887$2_0$597       stm8l15x_adc
     000097A9  A$ADC__GetFlagStatusatus$65        stm8l15x_adc
     000097AB  A$ADC__GetFlagStatusatus$69        stm8l15x_adc
     000097AB  C$stm8l15x_adc.c$892$2_0$598       stm8l15x_adc
     000097AC  A$ADC__GetFlagStatusatus$77        stm8l15x_adc
     000097AC  C$stm8l15x_adc.c$896$1_0$596       stm8l15x_adc
     000097AC  C$stm8l15x_adc.c$897$1_0$596       stm8l15x_adc
     000097AC  XG$ADC_GetFlagStatus$0$0           stm8l15x_adc
     000097AD  A$ADC__SamplingTimeConfignfig$56   stm8l15x_adc
     000097AD  C$stm8l15x_adc.c$637$0_0$596       stm8l15x_adc
     000097AD  G$ADC_SamplingTimeConfig$0$0       stm8l15x_adc
     000097AD  _ADC_SamplingTimeConfig            stm8l15x_adc
     000097AE  A$ADC__SamplingTimeConfignfig$59   stm8l15x_adc
     000097AE  C$stm8l15x_adc.c$648$1_0$596       stm8l15x_adc
     000097B0  A$ADC__SamplingTimeConfignfig$62   stm8l15x_adc
     000097B0  C$stm8l15x_adc.c$645$1_0$596       stm8l15x_adc
     000097B2  A$ADC__SamplingTimeConfignfig$63   stm8l15x_adc
     000097B4  A$ADC__SamplingTimeConfignfig$66   stm8l15x_adc
     000097B4  C$stm8l15x_adc.c$648$2_0$597       stm8l15x_adc
     000097B5  A$ADC__SamplingTimeConfignfig$67   stm8l15x_adc
     000097B6  A$ADC__SamplingTimeConfignfig$68   stm8l15x_adc
     000097B7  A$ADC__SamplingTimeConfignfig$69   stm8l15x_adc
     000097B9  A$ADC__SamplingTimeConfignfig$70   stm8l15x_adc
     000097BB  A$ADC__SamplingTimeConfignfig$71   stm8l15x_adc
     000097BC  A$ADC__SamplingTimeConfignfig$74   stm8l15x_adc
     000097BC  C$stm8l15x_adc.c$649$2_0$597       stm8l15x_adc
     000097BD  A$ADC__SamplingTimeConfignfig$75   stm8l15x_adc
     000097BF  A$ADC__SamplingTimeConfignfig$76   stm8l15x_adc
     000097C0  A$ADC__SamplingTimeConfignfig$77   stm8l15x_adc
     000097C2  A$ADC__SamplingTimeConfignfig$78   stm8l15x_adc
     000097C3  A$ADC__SamplingTimeConfignfig$79   stm8l15x_adc
     000097C5  A$ADC__SamplingTimeConfignfig$80   stm8l15x_adc
     000097C6  A$ADC__SamplingTimeConfignfig$81   stm8l15x_adc
     000097C8  A$ADC__SamplingTimeConfignfig$85   stm8l15x_adc
     000097C8  C$stm8l15x_adc.c$654$2_0$598       stm8l15x_adc
     000097C9  A$ADC__SamplingTimeConfignfig$86   stm8l15x_adc
     000097CA  A$ADC__SamplingTimeConfignfig$87   stm8l15x_adc
ASxxxx Linker V03.00 + NoICE + sdld,  page 86.
Hexadecimal  [32-Bits]

Area                                    Addr        Size        Decimal Bytes (Attributes)
--------------------------------        ----        ----        ------- ----- ------------
CODE                                00008306    000019D2 =        6610. bytes (REL,CON)

      Value  Global                              Global Defined In Module
      -----  --------------------------------   ------------------------
     000097CC  A$ADC__SamplingTimeConfignfig$88   stm8l15x_adc
     000097CD  A$ADC__SamplingTimeConfignfig$91   stm8l15x_adc
     000097CD  C$stm8l15x_adc.c$655$2_0$598       stm8l15x_adc
     000097CE  A$ADC__SamplingTimeConfignfig$92   stm8l15x_adc
     000097CF  A$ADC__SamplingTimeConfignfig$93   stm8l15x_adc
     000097D0  A$ADC__SamplingTimeConfignfig$94   stm8l15x_adc
     000097D2  A$ADC__SamplingTimeConfignfig$95   stm8l15x_adc
     000097D3  A$ADC__SamplingTimeConfignfig$99   stm8l15x_adc
     000097D4  A$ADC__SamplingTimeConfignfig$10   stm8l15x_adc
     000097D4  C$stm8l15x_adc.c$657$1_0$596       stm8l15x_adc
     000097D4  XG$ADC_SamplingTimeConfig$0$0      stm8l15x_adc
     000097D5  __divulong                         
     0000982F  A$CLK__PeripheralClockConfignfig   stm8l15x_clk
     0000982F  C$stm8l15x_clk.c$696$0_0$596       stm8l15x_clk
     0000982F  G$CLK_PeripheralClockConfig$0$0    stm8l15x_clk
     0000982F  _CLK_PeripheralClockConfig         stm8l15x_clk
     00009830  A$CLK__PeripheralClockConfignfig   stm8l15x_clk
     00009830  C$stm8l15x_clk.c$705$1_0$596       stm8l15x_clk
     00009832  A$CLK__PeripheralClockConfignfig   stm8l15x_clk
     00009834  A$CLK__PeripheralClockConfignfig   stm8l15x_clk
     00009835  A$CLK__PeripheralClockConfignfig   stm8l15x_clk
     00009837  A$CLK__PeripheralClockConfignfig   stm8l15x_clk
     00009839  A$CLK__PeripheralClockConfignfig   stm8l15x_clk
     0000983B  A$CLK__PeripheralClockConfignfig   stm8l15x_clk
     0000983C  A$CLK__PeripheralClockConfignfig   stm8l15x_clk
     0000983E  A$CLK__PeripheralClockConfignfig   stm8l15x_clk
     00009840  A$CLK__PeripheralClockConfignfig   stm8l15x_clk
     00009841  A$CLK__PeripheralClockConfignfig   stm8l15x_clk
     00009842  A$CLK__PeripheralClockConfignfig   stm8l15x_clk
     00009844  A$CLK__PeripheralClockConfignfig   stm8l15x_clk
     00009846  A$CLK__PeripheralClockConfignfig   stm8l15x_clk
     00009847  A$CLK__PeripheralClockConfignfig   stm8l15x_clk
     00009849  A$CLK__PeripheralClockConfignfig   stm8l15x_clk
     00009849  C$stm8l15x_clk.c$717$1_0$596       stm8l15x_clk
     0000984B  A$CLK__PeripheralClockConfignfig   stm8l15x_clk
     0000984C  A$CLK__PeripheralClockConfignfig   stm8l15x_clk
     0000984E  A$CLK__PeripheralClockConfignfig   stm8l15x_clk
     0000984E  C$stm8l15x_clk.c$707$1_0$596       stm8l15x_clk
     0000984F  A$CLK__PeripheralClockConfignfig   stm8l15x_clk
     00009850  A$CLK__PeripheralClockConfignfig   stm8l15x_clk
     00009852  A$CLK__PeripheralClockConfignfig   stm8l15x_clk
     00009852  C$stm8l15x_clk.c$712$1_0$596       stm8l15x_clk
     00009855  A$CLK__PeripheralClockConfignfig   stm8l15x_clk
     00009855  C$stm8l15x_clk.c$709$2_0$597       stm8l15x_clk
     00009857  A$CLK__PeripheralClockConfignfig   stm8l15x_clk
     00009859  A$CLK__PeripheralClockConfignfig   stm8l15x_clk
     00009859  C$stm8l15x_clk.c$712$3_0$598       stm8l15x_clk
     0000985B  A$CLK__PeripheralClockConfignfig   stm8l15x_clk
     0000985E  A$CLK__PeripheralClockConfignfig   stm8l15x_clk
     00009860  A$CLK__PeripheralClockConfignfig   stm8l15x_clk
     00009860  C$stm8l15x_clk.c$717$3_0$599       stm8l15x_clk
ASxxxx Linker V03.00 + NoICE + sdld,  page 87.
Hexadecimal  [32-Bits]

Area                                    Addr        Size        Decimal Bytes (Attributes)
--------------------------------        ----        ----        ------- ----- ------------
CODE                                00008306    000019D2 =        6610. bytes (REL,CON)

      Value  Global                              Global Defined In Module
      -----  --------------------------------   ------------------------
     00009862  A$CLK__PeripheralClockConfignfig   stm8l15x_clk
     00009865  A$CLK__PeripheralClockConfignfig   stm8l15x_clk
     00009867  A$CLK__PeripheralClockConfignfig   stm8l15x_clk
     00009867  C$stm8l15x_clk.c$720$1_0$596       stm8l15x_clk
     00009869  A$CLK__PeripheralClockConfignfig   stm8l15x_clk
     0000986B  A$CLK__PeripheralClockConfignfig   stm8l15x_clk
     0000986D  A$CLK__PeripheralClockConfignfig   stm8l15x_clk
     0000986D  C$stm8l15x_clk.c$725$1_0$596       stm8l15x_clk
     00009870  A$CLK__PeripheralClockConfignfig   stm8l15x_clk
     00009870  C$stm8l15x_clk.c$722$2_0$600       stm8l15x_clk
     00009872  A$CLK__PeripheralClockConfignfig   stm8l15x_clk
     00009874  A$CLK__PeripheralClockConfignfig   stm8l15x_clk
     00009874  C$stm8l15x_clk.c$725$3_0$601       stm8l15x_clk
     00009876  A$CLK__PeripheralClockConfignfig   stm8l15x_clk
     00009879  A$CLK__PeripheralClockConfignfig   stm8l15x_clk
     0000987B  A$CLK__PeripheralClockConfignfig   stm8l15x_clk
     0000987B  C$stm8l15x_clk.c$730$3_0$602       stm8l15x_clk
     0000987D  A$CLK__PeripheralClockConfignfig   stm8l15x_clk
     00009880  A$CLK__PeripheralClockConfignfig   stm8l15x_clk
     00009882  A$CLK__PeripheralClockConfignfig   stm8l15x_clk
     00009882  C$stm8l15x_clk.c$738$1_0$596       stm8l15x_clk
     00009885  A$CLK__PeripheralClockConfignfig   stm8l15x_clk
     00009885  C$stm8l15x_clk.c$735$2_0$603       stm8l15x_clk
     00009887  A$CLK__PeripheralClockConfignfig   stm8l15x_clk
     00009889  A$CLK__PeripheralClockConfignfig   stm8l15x_clk
     00009889  C$stm8l15x_clk.c$738$3_0$604       stm8l15x_clk
     0000988B  A$CLK__PeripheralClockConfignfig   stm8l15x_clk
     0000988E  A$CLK__PeripheralClockConfignfig   stm8l15x_clk
     00009890  A$CLK__PeripheralClockConfignfig   stm8l15x_clk
     00009890  C$stm8l15x_clk.c$743$3_0$605       stm8l15x_clk
     00009892  A$CLK__PeripheralClockConfignfig   stm8l15x_clk
     00009895  A$CLK__PeripheralClockConfignfig   stm8l15x_clk
     00009896  A$CLK__PeripheralClockConfignfig   stm8l15x_clk
     00009896  C$stm8l15x_clk.c$746$1_0$596       stm8l15x_clk
     00009896  XG$CLK_PeripheralClockConfig$0$0   stm8l15x_clk
     00009897  A$SPI__ReceiveDataData$58          stm8l15x_spi
     00009897  C$stm8l15x_spi.c$336$0_0$596       stm8l15x_spi
     00009897  C$stm8l15x_spi.c$338$1_0$596       stm8l15x_spi
     00009897  G$SPI_ReceiveData$0$0              stm8l15x_spi
     00009897  _SPI_ReceiveData                   stm8l15x_spi
     00009899  A$SPI__ReceiveDataData$59          stm8l15x_spi
     0000989B  A$SPI__ReceiveDataData$64          stm8l15x_spi
     0000989B  C$stm8l15x_spi.c$339$1_0$596       stm8l15x_spi
     0000989B  XG$SPI_ReceiveData$0$0             stm8l15x_spi
     0000989C  _memset                            _memset
     000098BB  A$CLK__SYSCLKDivConfignfig$58      stm8l15x_clk
     000098BB  C$stm8l15x_clk.c$544$0_0$596       stm8l15x_clk
     000098BB  C$stm8l15x_clk.c$549$1_0$596       stm8l15x_clk
     000098BB  G$CLK_SYSCLKDivConfig$0$0          stm8l15x_clk
     000098BB  _CLK_SYSCLKDivConfig               stm8l15x_clk
     000098BE  A$CLK__SYSCLKDivConfignfig$59      stm8l15x_clk
ASxxxx Linker V03.00 + NoICE + sdld,  page 88.
Hexadecimal  [32-Bits]

Area                                    Addr        Size        Decimal Bytes (Attributes)
--------------------------------        ----        ----        ------- ----- ------------
CODE                                00008306    000019D2 =        6610. bytes (REL,CON)

      Value  Global                              Global Defined In Module
      -----  --------------------------------   ------------------------
     000098C0  A$CLK__SYSCLKDivConfignfig$60      stm8l15x_clk
     000098C1  A$CLK__SYSCLKDivConfignfig$65      stm8l15x_clk
     000098C1  C$stm8l15x_clk.c$550$1_0$596       stm8l15x_clk
     000098C1  XG$CLK_SYSCLKDivConfig$0$0         stm8l15x_clk
     000098C2  _puts                              puts
     000098E6  A$USART__GetFlagStatusatus$56      stm8l15x_usart
     000098E6  C$stm8l15x_usart.c$1026$0_0$596    stm8l15x_usart
     000098E6  G$USART_GetFlagStatus$0$0          stm8l15x_usart
     000098E6  _USART_GetFlagStatus               stm8l15x_usart
     000098E7  A$USART__GetFlagStatusatus$59      stm8l15x_usart
     000098E9  A$USART__GetFlagStatusatus$62      stm8l15x_usart
     000098E9  C$stm8l15x_usart.c$1035$1_0$596    stm8l15x_usart
     000098EB  A$USART__GetFlagStatusatus$63      stm8l15x_usart
     000098ED  A$USART__GetFlagStatusatus$64      stm8l15x_usart
     000098EF  A$USART__GetFlagStatusatus$67      stm8l15x_usart
     000098EF  C$stm8l15x_usart.c$1033$1_0$596    stm8l15x_usart
     000098F3  A$USART__GetFlagStatusatus$68      stm8l15x_usart
     000098F5  A$USART__GetFlagStatusatus$71      stm8l15x_usart
     000098F5  C$stm8l15x_usart.c$1035$2_0$597    stm8l15x_usart
     000098F7  A$USART__GetFlagStatusatus$72      stm8l15x_usart
     000098F9  A$USART__GetFlagStatusatus$73      stm8l15x_usart
     000098FB  A$USART__GetFlagStatusatus$76      stm8l15x_usart
     000098FB  C$stm8l15x_usart.c$1038$3_0$598    stm8l15x_usart
     000098FD  A$USART__GetFlagStatusatus$77      stm8l15x_usart
     000098FF  A$USART__GetFlagStatusatus$81      stm8l15x_usart
     000098FF  C$stm8l15x_usart.c$1043$3_0$599    stm8l15x_usart
     00009900  A$USART__GetFlagStatusatus$82      stm8l15x_usart
     00009902  A$USART__GetFlagStatusatus$86      stm8l15x_usart
     00009902  C$stm8l15x_usart.c$1048$2_0$600    stm8l15x_usart
     00009903  A$USART__GetFlagStatusatus$87      stm8l15x_usart
     00009905  A$USART__GetFlagStatusatus$88      stm8l15x_usart
     00009907  A$USART__GetFlagStatusatus$91      stm8l15x_usart
     00009907  C$stm8l15x_usart.c$1051$3_0$601    stm8l15x_usart
     00009909  A$USART__GetFlagStatusatus$92      stm8l15x_usart
     0000990B  A$USART__GetFlagStatusatus$96      stm8l15x_usart
     0000990B  C$stm8l15x_usart.c$1056$3_0$602    stm8l15x_usart
     0000990C  A$USART__GetFlagStatusatus$102     stm8l15x_usart
     0000990C  C$stm8l15x_usart.c$1060$1_0$596    stm8l15x_usart
     0000990E  A$USART__GetFlagStatusatus$105     stm8l15x_usart
     0000990E  C$stm8l15x_usart.c$1061$1_0$596    stm8l15x_usart
     0000990E  XG$USART_GetFlagStatus$0$0         stm8l15x_usart
     0000990F  A$SPI__SendDataData$58             stm8l15x_spi
     0000990F  C$stm8l15x_spi.c$325$0_0$596       stm8l15x_spi
     0000990F  C$stm8l15x_spi.c$327$1_0$596       stm8l15x_spi
     0000990F  G$SPI_SendData$0$0                 stm8l15x_spi
     0000990F  _SPI_SendData                      stm8l15x_spi
     00009911  A$SPI__SendDataData$59             stm8l15x_spi
     00009913  A$SPI__SendDataData$60             stm8l15x_spi
     00009915  A$SPI__SendDataData$65             stm8l15x_spi
     00009915  C$stm8l15x_spi.c$328$1_0$596       stm8l15x_spi
     00009915  XG$SPI_SendData$0$0                stm8l15x_spi
ASxxxx Linker V03.00 + NoICE + sdld,  page 89.
Hexadecimal  [32-Bits]

Area                                    Addr        Size        Decimal Bytes (Attributes)
--------------------------------        ----        ----        ------- ----- ------------
CODE                                00008306    000019D2 =        6610. bytes (REL,CON)

      Value  Global                              Global Defined In Module
      -----  --------------------------------   ------------------------
     00009916  A$I2C__ITConfignfig$56             stm8l15x_i2c
     00009916  C$stm8l15x_i2c.c$979$0_0$596       stm8l15x_i2c
     00009916  G$I2C_ITConfig$0$0                 stm8l15x_i2c
     00009916  _I2C_ITConfig                      stm8l15x_i2c
     00009917  A$I2C__ITConfignfig$59             stm8l15x_i2c
     00009917  C$stm8l15x_i2c.c$988$1_0$596       stm8l15x_i2c
     00009919  A$I2C__ITConfignfig$60             stm8l15x_i2c
     0000991B  A$I2C__ITConfignfig$61             stm8l15x_i2c
     0000991E  A$I2C__ITConfignfig$62             stm8l15x_i2c
     0000991F  A$I2C__ITConfignfig$63             stm8l15x_i2c
     00009920  A$I2C__ITConfignfig$64             stm8l15x_i2c
     00009922  A$I2C__ITConfignfig$65             stm8l15x_i2c
     00009923  A$I2C__ITConfignfig$68             stm8l15x_i2c
     00009923  C$stm8l15x_i2c.c$985$1_0$596       stm8l15x_i2c
     00009925  A$I2C__ITConfignfig$69             stm8l15x_i2c
     00009927  A$I2C__ITConfignfig$72             stm8l15x_i2c
     00009927  C$stm8l15x_i2c.c$988$2_0$597       stm8l15x_i2c
     00009929  A$I2C__ITConfignfig$73             stm8l15x_i2c
     0000992A  A$I2C__ITConfignfig$74             stm8l15x_i2c
     0000992C  A$I2C__ITConfignfig$78             stm8l15x_i2c
     0000992C  C$stm8l15x_i2c.c$993$2_0$598       stm8l15x_i2c
     0000992D  A$I2C__ITConfignfig$79             stm8l15x_i2c
     0000992F  A$I2C__ITConfignfig$80             stm8l15x_i2c
     00009930  A$I2C__ITConfignfig$84             stm8l15x_i2c
     00009931  A$I2C__ITConfignfig$87             stm8l15x_i2c
     00009931  C$stm8l15x_i2c.c$995$1_0$596       stm8l15x_i2c
     00009931  XG$I2C_ITConfig$0$0                stm8l15x_i2c
     00009932  A$TIM4__Cmd_Cmd$58                 stm8l15x_tim4
     00009932  C$stm8l15x_tim4.c$400$0_0$596      stm8l15x_tim4
     00009932  C$stm8l15x_tim4.c$408$1_0$596      stm8l15x_tim4
     00009932  G$TIM4_Cmd$0$0                     stm8l15x_tim4
     00009932  _TIM4_Cmd                          stm8l15x_tim4
     00009935  A$TIM4__Cmd_Cmd$61                 stm8l15x_tim4
     00009935  C$stm8l15x_tim4.c$406$1_0$596      stm8l15x_tim4
     00009937  A$TIM4__Cmd_Cmd$62                 stm8l15x_tim4
     00009939  A$TIM4__Cmd_Cmd$65                 stm8l15x_tim4
     00009939  C$stm8l15x_tim4.c$408$2_0$597      stm8l15x_tim4
     0000993B  A$TIM4__Cmd_Cmd$66                 stm8l15x_tim4
     0000993E  A$TIM4__Cmd_Cmd$67                 stm8l15x_tim4
     00009940  A$TIM4__Cmd_Cmd$71                 stm8l15x_tim4
     00009940  C$stm8l15x_tim4.c$412$2_0$598      stm8l15x_tim4
     00009942  A$TIM4__Cmd_Cmd$72                 stm8l15x_tim4
     00009945  A$TIM4__Cmd_Cmd$78                 stm8l15x_tim4
     00009945  C$stm8l15x_tim4.c$414$1_0$596      stm8l15x_tim4
     00009945  XG$TIM4_Cmd$0$0                    stm8l15x_tim4
     00009946  A$CLK__GetClockFreqFreq$56         stm8l15x_clk
     00009946  C$stm8l15x_clk.c$493$0_0$596       stm8l15x_clk
     00009946  G$CLK_GetClockFreq$0$0             stm8l15x_clk
     00009946  _CLK_GetClockFreq                  stm8l15x_clk
     00009948  A$CLK__GetClockFreqFreq$59         stm8l15x_clk
     00009948  C$stm8l15x_clk.c$496$2_0$596       stm8l15x_clk
ASxxxx Linker V03.00 + NoICE + sdld,  page 90.
Hexadecimal  [32-Bits]

Area                                    Addr        Size        Decimal Bytes (Attributes)
--------------------------------        ----        ----        ------- ----- ------------
CODE                                00008306    000019D2 =        6610. bytes (REL,CON)

      Value  Global                              Global Defined In Module
      -----  --------------------------------   ------------------------
     00009949  A$CLK__GetClockFreqFreq$60         stm8l15x_clk
     0000994B  A$CLK__GetClockFreqFreq$61         stm8l15x_clk
     0000994D  A$CLK__GetClockFreqFreq$64         stm8l15x_clk
     0000994D  C$stm8l15x_clk.c$501$1_0$596       stm8l15x_clk
     00009950  A$CLK__GetClockFreqFreq$67         stm8l15x_clk
     00009950  C$stm8l15x_clk.c$503$1_0$596       stm8l15x_clk
     00009952  A$CLK__GetClockFreqFreq$68         stm8l15x_clk
     00009954  A$CLK__GetClockFreqFreq$71         stm8l15x_clk
     00009954  C$stm8l15x_clk.c$505$2_0$597       stm8l15x_clk
     00009957  A$CLK__GetClockFreqFreq$72         stm8l15x_clk
     00009959  A$CLK__GetClockFreqFreq$73         stm8l15x_clk
     0000995C  A$CLK__GetClockFreqFreq$74         stm8l15x_clk
     0000995E  A$CLK__GetClockFreqFreq$75         stm8l15x_clk
     00009960  A$CLK__GetClockFreqFreq$79         stm8l15x_clk
     00009960  C$stm8l15x_clk.c$507$1_0$596       stm8l15x_clk
     00009962  A$CLK__GetClockFreqFreq$80         stm8l15x_clk
     00009964  A$CLK__GetClockFreqFreq$83         stm8l15x_clk
     00009964  C$stm8l15x_clk.c$509$2_0$598       stm8l15x_clk
     00009967  A$CLK__GetClockFreqFreq$84         stm8l15x_clk
     00009969  A$CLK__GetClockFreqFreq$85         stm8l15x_clk
     0000996A  A$CLK__GetClockFreqFreq$86         stm8l15x_clk
     0000996C  A$CLK__GetClockFreqFreq$87         stm8l15x_clk
     0000996E  A$CLK__GetClockFreqFreq$91         stm8l15x_clk
     0000996E  C$stm8l15x_clk.c$511$1_0$596       stm8l15x_clk
     00009970  A$CLK__GetClockFreqFreq$92         stm8l15x_clk
     00009972  A$CLK__GetClockFreqFreq$95         stm8l15x_clk
     00009972  C$stm8l15x_clk.c$513$2_0$599       stm8l15x_clk
     00009975  A$CLK__GetClockFreqFreq$96         stm8l15x_clk
     00009977  A$CLK__GetClockFreqFreq$97         stm8l15x_clk
     0000997A  A$CLK__GetClockFreqFreq$98         stm8l15x_clk
     0000997C  A$CLK__GetClockFreqFreq$104        stm8l15x_clk
     0000997C  C$stm8l15x_clk.c$517$1_0$596       stm8l15x_clk
     0000997C  C$stm8l15x_clk.c$521$1_0$596       stm8l15x_clk
     0000997F  A$CLK__GetClockFreqFreq$105        stm8l15x_clk
     00009981  A$CLK__GetClockFreqFreq$108        stm8l15x_clk
     00009981  C$stm8l15x_clk.c$522$1_0$596       stm8l15x_clk
     00009982  A$CLK__GetClockFreqFreq$109        stm8l15x_clk
     00009983  A$CLK__GetClockFreqFreq$110        stm8l15x_clk
     00009986  A$CLK__GetClockFreqFreq$111        stm8l15x_clk
     00009987  A$CLK__GetClockFreqFreq$114        stm8l15x_clk
     00009987  C$stm8l15x_clk.c$525$1_0$596       stm8l15x_clk
     00009988  A$CLK__GetClockFreqFreq$115        stm8l15x_clk
     00009989  A$CLK__GetClockFreqFreq$116        stm8l15x_clk
     0000998B  A$CLK__GetClockFreqFreq$117        stm8l15x_clk
     0000998C  A$CLK__GetClockFreqFreq$118        stm8l15x_clk
     0000998E  A$CLK__GetClockFreqFreq$119        stm8l15x_clk
     00009990  A$CLK__GetClockFreqFreq$120        stm8l15x_clk
     00009991  A$CLK__GetClockFreqFreq$121        stm8l15x_clk
     00009993  A$CLK__GetClockFreqFreq$122        stm8l15x_clk
     00009994  A$CLK__GetClockFreqFreq$123        stm8l15x_clk
     00009997  A$CLK__GetClockFreqFreq$124        stm8l15x_clk
ASxxxx Linker V03.00 + NoICE + sdld,  page 91.
Hexadecimal  [32-Bits]

Area                                    Addr        Size        Decimal Bytes (Attributes)
--------------------------------        ----        ----        ------- ----- ------------
CODE                                00008306    000019D2 =        6610. bytes (REL,CON)

      Value  Global                              Global Defined In Module
      -----  --------------------------------   ------------------------
     00009999  A$CLK__GetClockFreqFreq$129        stm8l15x_clk
     00009999  C$stm8l15x_clk.c$527$1_0$596       stm8l15x_clk
     0000999B  A$CLK__GetClockFreqFreq$132        stm8l15x_clk
     0000999B  C$stm8l15x_clk.c$528$1_0$596       stm8l15x_clk
     0000999B  XG$CLK_GetClockFreq$0$0            stm8l15x_clk
     0000999C  A$FLASH__LockLock$58               stm8l15x_flash
     0000999C  C$stm8l15x_flash.c$309$0_0$596     stm8l15x_flash
     0000999C  C$stm8l15x_flash.c$315$1_0$596     stm8l15x_flash
     0000999C  G$FLASH_Lock$0$0                   stm8l15x_flash
     0000999C  _FLASH_Lock                        stm8l15x_flash
     0000999F  A$FLASH__LockLock$59               stm8l15x_flash
     000099A1  A$FLASH__LockLock$60               stm8l15x_flash
     000099A4  A$FLASH__LockLock$65               stm8l15x_flash
     000099A4  C$stm8l15x_flash.c$316$1_0$596     stm8l15x_flash
     000099A4  XG$FLASH_Lock$0$0                  stm8l15x_flash
     000099A5  A$ADC__SoftwareStartConvConv$58    stm8l15x_adc
     000099A5  C$stm8l15x_adc.c$243$0_0$596       stm8l15x_adc
     000099A5  C$stm8l15x_adc.c$246$1_0$596       stm8l15x_adc
     000099A5  G$ADC_SoftwareStartConv$0$0        stm8l15x_adc
     000099A5  _ADC_SoftwareStartConv             stm8l15x_adc
     000099A7  A$ADC__SoftwareStartConvConv$59    stm8l15x_adc
     000099A8  A$ADC__SoftwareStartConvConv$60    stm8l15x_adc
     000099AA  A$ADC__SoftwareStartConvConv$61    stm8l15x_adc
     000099AB  A$ADC__SoftwareStartConvConv$66    stm8l15x_adc
     000099AB  C$stm8l15x_adc.c$247$1_0$596       stm8l15x_adc
     000099AB  XG$ADC_SoftwareStartConv$0$0       stm8l15x_adc
     000099AC  A$EXTI__SetPinSensitivityvity$56   stm8l15x_exti
     000099AC  C$stm8l15x_exti.c$162$0_0$596      stm8l15x_exti
     000099AC  G$EXTI_SetPinSensitivity$0$0       stm8l15x_exti
     000099AC  _EXTI_SetPinSensitivity            stm8l15x_exti
     000099AD  A$EXTI__SetPinSensitivityvity$59   stm8l15x_exti
     000099AD  C$stm8l15x_exti.c$174$1_0$596      stm8l15x_exti
     000099AF  A$EXTI__SetPinSensitivityvity$60   stm8l15x_exti
     000099B0  A$EXTI__SetPinSensitivityvity$61   stm8l15x_exti
     000099B2  A$EXTI__SetPinSensitivityvity$62   stm8l15x_exti
     000099B4  A$EXTI__SetPinSensitivityvity$64   stm8l15x_exti
     000099B6  A$EXTI__SetPinSensitivityvity$65   stm8l15x_exti
     000099B7  A$EXTI__SetPinSensitivityvity$66   stm8l15x_exti
     000099B9  A$EXTI__SetPinSensitivityvity$68   stm8l15x_exti
     000099BA  A$EXTI__SetPinSensitivityvity$69   stm8l15x_exti
     000099BC  A$EXTI__SetPinSensitivityvity$72   stm8l15x_exti
     000099BE  A$EXTI__SetPinSensitivityvity$73   stm8l15x_exti
     000099C0  A$EXTI__SetPinSensitivityvity$74   stm8l15x_exti
     000099C2  A$EXTI__SetPinSensitivityvity$75   stm8l15x_exti
     000099C4  A$EXTI__SetPinSensitivityvity$76   stm8l15x_exti
     000099C6  A$EXTI__SetPinSensitivityvity$77   stm8l15x_exti
     000099C8  A$EXTI__SetPinSensitivityvity$78   stm8l15x_exti
     000099CB  A$EXTI__SetPinSensitivityvity$80   stm8l15x_exti
     000099CD  A$EXTI__SetPinSensitivityvity$81   stm8l15x_exti
     000099CF  A$EXTI__SetPinSensitivityvity$82   stm8l15x_exti
     000099D1  A$EXTI__SetPinSensitivityvity$83   stm8l15x_exti
ASxxxx Linker V03.00 + NoICE + sdld,  page 92.
Hexadecimal  [32-Bits]

Area                                    Addr        Size        Decimal Bytes (Attributes)
--------------------------------        ----        ----        ------- ----- ------------
CODE                                00008306    000019D2 =        6610. bytes (REL,CON)

      Value  Global                              Global Defined In Module
      -----  --------------------------------   ------------------------
     000099D4  A$EXTI__SetPinSensitivityvity$85   stm8l15x_exti
     000099D6  A$EXTI__SetPinSensitivityvity$86   stm8l15x_exti
     000099D8  A$EXTI__SetPinSensitivityvity$87   stm8l15x_exti
     000099DA  A$EXTI__SetPinSensitivityvity$88   stm8l15x_exti
     000099DD  A$EXTI__SetPinSensitivityvity$92   stm8l15x_exti
     000099DD  C$stm8l15x_exti.c$190$1_0$596      stm8l15x_exti
     000099DF  A$EXTI__SetPinSensitivityvity$93   stm8l15x_exti
     000099E1  A$EXTI__SetPinSensitivityvity$94   stm8l15x_exti
     000099E2  A$EXTI__SetPinSensitivityvity$95   stm8l15x_exti
     000099E4  A$EXTI__SetPinSensitivityvity$96   stm8l15x_exti
     000099E5  A$EXTI__SetPinSensitivityvity$97   stm8l15x_exti
     000099E6  A$EXTI__SetPinSensitivityvity$98   stm8l15x_exti
     000099E7  A$EXTI__SetPinSensitivityvity$99   stm8l15x_exti
     000099E9  A$EXTI__SetPinSensitivityvity$10   stm8l15x_exti
     000099EB  A$EXTI__SetPinSensitivityvity$10   stm8l15x_exti
     000099EC  A$EXTI__SetPinSensitivityvity$10   stm8l15x_exti
     000099EE  A$EXTI__SetPinSensitivityvity$10   stm8l15x_exti
     000099EF  A$EXTI__SetPinSensitivityvity$10   stm8l15x_exti
     000099F1  A$EXTI__SetPinSensitivityvity$10   stm8l15x_exti
     000099F1  C$stm8l15x_exti.c$170$1_0$596      stm8l15x_exti
     000099F3  A$EXTI__SetPinSensitivityvity$11   stm8l15x_exti
     000099F5  A$EXTI__SetPinSensitivityvity$11   stm8l15x_exti
     000099F7  A$EXTI__SetPinSensitivityvity$11   stm8l15x_exti
     000099FA  A$EXTI__SetPinSensitivityvity$11   stm8l15x_exti
     000099FC  A$EXTI__SetPinSensitivityvity$11   stm8l15x_exti
     000099FE  A$EXTI__SetPinSensitivityvity$11   stm8l15x_exti
     00009A00  A$EXTI__SetPinSensitivityvity$11   stm8l15x_exti
     00009A03  A$EXTI__SetPinSensitivityvity$11   stm8l15x_exti
     00009A05  A$EXTI__SetPinSensitivityvity$12   stm8l15x_exti
     00009A07  A$EXTI__SetPinSensitivityvity$12   stm8l15x_exti
     00009A09  A$EXTI__SetPinSensitivityvity$12   stm8l15x_exti
     00009A0C  A$EXTI__SetPinSensitivityvity$12   stm8l15x_exti
     00009A0E  A$EXTI__SetPinSensitivityvity$12   stm8l15x_exti
     00009A10  A$EXTI__SetPinSensitivityvity$12   stm8l15x_exti
     00009A12  A$EXTI__SetPinSensitivityvity$12   stm8l15x_exti
     00009A15  A$EXTI__SetPinSensitivityvity$12   stm8l15x_exti
     00009A18  A$EXTI__SetPinSensitivityvity$13   stm8l15x_exti
     00009A18  C$stm8l15x_exti.c$172$2_0$597      stm8l15x_exti
     00009A18  C$stm8l15x_exti.c$173$2_0$597      stm8l15x_exti
     00009A1B  A$EXTI__SetPinSensitivityvity$13   stm8l15x_exti
     00009A1D  A$EXTI__SetPinSensitivityvity$13   stm8l15x_exti
     00009A20  A$EXTI__SetPinSensitivityvity$14   stm8l15x_exti
     00009A20  C$stm8l15x_exti.c$174$2_0$597      stm8l15x_exti
     00009A23  A$EXTI__SetPinSensitivityvity$14   stm8l15x_exti
     00009A25  A$EXTI__SetPinSensitivityvity$14   stm8l15x_exti
     00009A28  A$EXTI__SetPinSensitivityvity$14   stm8l15x_exti
     00009A28  C$stm8l15x_exti.c$175$2_0$597      stm8l15x_exti
     00009A2B  A$EXTI__SetPinSensitivityvity$15   stm8l15x_exti
     00009A2B  C$stm8l15x_exti.c$176$2_0$597      stm8l15x_exti
     00009A2B  C$stm8l15x_exti.c$177$2_0$597      stm8l15x_exti
     00009A2E  A$EXTI__SetPinSensitivityvity$15   stm8l15x_exti
ASxxxx Linker V03.00 + NoICE + sdld,  page 93.
Hexadecimal  [32-Bits]

Area                                    Addr        Size        Decimal Bytes (Attributes)
--------------------------------        ----        ----        ------- ----- ------------
CODE                                00008306    000019D2 =        6610. bytes (REL,CON)

      Value  Global                              Global Defined In Module
      -----  --------------------------------   ------------------------
     00009A30  A$EXTI__SetPinSensitivityvity$15   stm8l15x_exti
     00009A33  A$EXTI__SetPinSensitivityvity$15   stm8l15x_exti
     00009A33  C$stm8l15x_exti.c$178$2_0$597      stm8l15x_exti
     00009A36  A$EXTI__SetPinSensitivityvity$15   stm8l15x_exti
     00009A38  A$EXTI__SetPinSensitivityvity$15   stm8l15x_exti
     00009A3B  A$EXTI__SetPinSensitivityvity$16   stm8l15x_exti
     00009A3B  C$stm8l15x_exti.c$179$2_0$597      stm8l15x_exti
     00009A3E  A$EXTI__SetPinSensitivityvity$16   stm8l15x_exti
     00009A3E  C$stm8l15x_exti.c$180$2_0$597      stm8l15x_exti
     00009A3E  C$stm8l15x_exti.c$181$2_0$597      stm8l15x_exti
     00009A41  A$EXTI__SetPinSensitivityvity$16   stm8l15x_exti
     00009A43  A$EXTI__SetPinSensitivityvity$16   stm8l15x_exti
     00009A46  A$EXTI__SetPinSensitivityvity$17   stm8l15x_exti
     00009A46  C$stm8l15x_exti.c$182$2_0$597      stm8l15x_exti
     00009A49  A$EXTI__SetPinSensitivityvity$17   stm8l15x_exti
     00009A4B  A$EXTI__SetPinSensitivityvity$17   stm8l15x_exti
     00009A4E  A$EXTI__SetPinSensitivityvity$17   stm8l15x_exti
     00009A4E  C$stm8l15x_exti.c$183$2_0$597      stm8l15x_exti
     00009A51  A$EXTI__SetPinSensitivityvity$18   stm8l15x_exti
     00009A51  C$stm8l15x_exti.c$184$2_0$597      stm8l15x_exti
     00009A51  C$stm8l15x_exti.c$185$2_0$597      stm8l15x_exti
     00009A54  A$EXTI__SetPinSensitivityvity$18   stm8l15x_exti
     00009A56  A$EXTI__SetPinSensitivityvity$18   stm8l15x_exti
     00009A59  A$EXTI__SetPinSensitivityvity$18   stm8l15x_exti
     00009A59  C$stm8l15x_exti.c$186$2_0$597      stm8l15x_exti
     00009A5C  A$EXTI__SetPinSensitivityvity$18   stm8l15x_exti
     00009A5E  A$EXTI__SetPinSensitivityvity$19   stm8l15x_exti
     00009A61  A$EXTI__SetPinSensitivityvity$19   stm8l15x_exti
     00009A61  C$stm8l15x_exti.c$187$2_0$597      stm8l15x_exti
     00009A64  A$EXTI__SetPinSensitivityvity$19   stm8l15x_exti
     00009A64  C$stm8l15x_exti.c$188$2_0$597      stm8l15x_exti
     00009A64  C$stm8l15x_exti.c$189$2_0$597      stm8l15x_exti
     00009A67  A$EXTI__SetPinSensitivityvity$20   stm8l15x_exti
     00009A69  A$EXTI__SetPinSensitivityvity$20   stm8l15x_exti
     00009A6C  A$EXTI__SetPinSensitivityvity$20   stm8l15x_exti
     00009A6C  C$stm8l15x_exti.c$190$2_0$597      stm8l15x_exti
     00009A6F  A$EXTI__SetPinSensitivityvity$20   stm8l15x_exti
     00009A71  A$EXTI__SetPinSensitivityvity$20   stm8l15x_exti
     00009A74  A$EXTI__SetPinSensitivityvity$20   stm8l15x_exti
     00009A74  C$stm8l15x_exti.c$191$2_0$597      stm8l15x_exti
     00009A76  A$EXTI__SetPinSensitivityvity$21   stm8l15x_exti
     00009A76  C$stm8l15x_exti.c$192$2_0$597      stm8l15x_exti
     00009A76  C$stm8l15x_exti.c$193$2_0$597      stm8l15x_exti
     00009A79  A$EXTI__SetPinSensitivityvity$21   stm8l15x_exti
     00009A7B  A$EXTI__SetPinSensitivityvity$21   stm8l15x_exti
     00009A7E  A$EXTI__SetPinSensitivityvity$22   stm8l15x_exti
     00009A7E  C$stm8l15x_exti.c$194$2_0$597      stm8l15x_exti
     00009A81  A$EXTI__SetPinSensitivityvity$22   stm8l15x_exti
     00009A83  A$EXTI__SetPinSensitivityvity$22   stm8l15x_exti
     00009A86  A$EXTI__SetPinSensitivityvity$22   stm8l15x_exti
     00009A86  C$stm8l15x_exti.c$195$2_0$597      stm8l15x_exti
ASxxxx Linker V03.00 + NoICE + sdld,  page 94.
Hexadecimal  [32-Bits]

Area                                    Addr        Size        Decimal Bytes (Attributes)
--------------------------------        ----        ----        ------- ----- ------------
CODE                                00008306    000019D2 =        6610. bytes (REL,CON)

      Value  Global                              Global Defined In Module
      -----  --------------------------------   ------------------------
     00009A88  A$EXTI__SetPinSensitivityvity$23   stm8l15x_exti
     00009A88  C$stm8l15x_exti.c$196$2_0$597      stm8l15x_exti
     00009A88  C$stm8l15x_exti.c$197$2_0$597      stm8l15x_exti
     00009A8B  A$EXTI__SetPinSensitivityvity$23   stm8l15x_exti
     00009A8D  A$EXTI__SetPinSensitivityvity$23   stm8l15x_exti
     00009A90  A$EXTI__SetPinSensitivityvity$23   stm8l15x_exti
     00009A90  C$stm8l15x_exti.c$198$2_0$597      stm8l15x_exti
     00009A93  A$EXTI__SetPinSensitivityvity$23   stm8l15x_exti
     00009A95  A$EXTI__SetPinSensitivityvity$23   stm8l15x_exti
     00009A98  A$EXTI__SetPinSensitivityvity$24   stm8l15x_exti
     00009A98  C$stm8l15x_exti.c$199$2_0$597      stm8l15x_exti
     00009A9A  A$EXTI__SetPinSensitivityvity$24   stm8l15x_exti
     00009A9A  C$stm8l15x_exti.c$200$2_0$597      stm8l15x_exti
     00009A9A  C$stm8l15x_exti.c$201$2_0$597      stm8l15x_exti
     00009A9D  A$EXTI__SetPinSensitivityvity$24   stm8l15x_exti
     00009A9F  A$EXTI__SetPinSensitivityvity$24   stm8l15x_exti
     00009AA2  A$EXTI__SetPinSensitivityvity$25   stm8l15x_exti
     00009AA2  C$stm8l15x_exti.c$202$2_0$597      stm8l15x_exti
     00009AA5  A$EXTI__SetPinSensitivityvity$25   stm8l15x_exti
     00009AA7  A$EXTI__SetPinSensitivityvity$25   stm8l15x_exti
     00009AAA  A$EXTI__SetPinSensitivityvity$26   stm8l15x_exti
     00009AAA  C$stm8l15x_exti.c$206$1_0$596      stm8l15x_exti
     00009AAB  A$EXTI__SetPinSensitivityvity$26   stm8l15x_exti
     00009AAB  C$stm8l15x_exti.c$207$1_0$596      stm8l15x_exti
     00009AAB  XG$EXTI_SetPinSensitivity$0$0      stm8l15x_exti
     00009AAC  A$RTC__WakeUpClockConfignfig$58    stm8l15x_rtc
     00009AAC  C$stm8l15x_rtc.c$1394$0_0$598      stm8l15x_rtc
     00009AAC  C$stm8l15x_rtc.c$1402$1_0$598      stm8l15x_rtc
     00009AAC  G$RTC_WakeUpClockConfig$0$0        stm8l15x_rtc
     00009AAC  _RTC_WakeUpClockConfig             stm8l15x_rtc
     00009AB0  A$RTC__WakeUpClockConfignfig$61    stm8l15x_rtc
     00009AB0  C$stm8l15x_rtc.c$1403$1_0$598      stm8l15x_rtc
     00009AB4  A$RTC__WakeUpClockConfignfig$64    stm8l15x_rtc
     00009AB4  C$stm8l15x_rtc.c$1406$1_0$598      stm8l15x_rtc
     00009AB8  A$RTC__WakeUpClockConfignfig$67    stm8l15x_rtc
     00009AB8  C$stm8l15x_rtc.c$1409$1_0$598      stm8l15x_rtc
     00009AB9  A$RTC__WakeUpClockConfignfig$69    stm8l15x_rtc
     00009ABC  A$RTC__WakeUpClockConfignfig$70    stm8l15x_rtc
     00009ABE  A$RTC__WakeUpClockConfignfig$71    stm8l15x_rtc
     00009AC0  A$RTC__WakeUpClockConfignfig$72    stm8l15x_rtc
     00009AC3  A$RTC__WakeUpClockConfignfig$73    stm8l15x_rtc
     00009AC5  A$RTC__WakeUpClockConfignfig$76    stm8l15x_rtc
     00009AC5  C$stm8l15x_rtc.c$1411$2_0$599      stm8l15x_rtc
     00009AC6  A$RTC__WakeUpClockConfignfig$77    stm8l15x_rtc
     00009AC8  A$RTC__WakeUpClockConfignfig$81    stm8l15x_rtc
     00009AC8  C$stm8l15x_rtc.c$1415$1_0$598      stm8l15x_rtc
     00009ACB  A$RTC__WakeUpClockConfignfig$82    stm8l15x_rtc
     00009ACD  A$RTC__WakeUpClockConfignfig$83    stm8l15x_rtc
     00009AD0  A$RTC__WakeUpClockConfignfig$86    stm8l15x_rtc
     00009AD0  C$stm8l15x_rtc.c$1418$1_0$598      stm8l15x_rtc
     00009AD3  A$RTC__WakeUpClockConfignfig$87    stm8l15x_rtc
ASxxxx Linker V03.00 + NoICE + sdld,  page 95.
Hexadecimal  [32-Bits]

Area                                    Addr        Size        Decimal Bytes (Attributes)
--------------------------------        ----        ----        ------- ----- ------------
CODE                                00008306    000019D2 =        6610. bytes (REL,CON)

      Value  Global                              Global Defined In Module
      -----  --------------------------------   ------------------------
     00009AD5  A$RTC__WakeUpClockConfignfig$88    stm8l15x_rtc
     00009AD8  A$RTC__WakeUpClockConfignfig$91    stm8l15x_rtc
     00009AD8  C$stm8l15x_rtc.c$1421$1_0$598      stm8l15x_rtc
     00009ADC  A$RTC__WakeUpClockConfignfig$96    stm8l15x_rtc
     00009ADC  C$stm8l15x_rtc.c$1422$1_0$598      stm8l15x_rtc
     00009ADC  XG$RTC_WakeUpClockConfig$0$0       stm8l15x_rtc
     00009ADD  A$CLK__GetFlagStatusatus$56        stm8l15x_clk
     00009ADD  C$stm8l15x_clk.c$970$0_0$596       stm8l15x_clk
     00009ADD  G$CLK_GetFlagStatus$0$0            stm8l15x_clk
     00009ADD  _CLK_GetFlagStatus                 stm8l15x_clk
     00009ADE  A$CLK__GetFlagStatusatus$59        stm8l15x_clk
     00009ADE  C$stm8l15x_clk.c$980$1_0$596       stm8l15x_clk
     00009AE0  A$CLK__GetFlagStatusatus$60        stm8l15x_clk
     00009AE2  A$CLK__GetFlagStatusatus$63        stm8l15x_clk
     00009AE2  C$stm8l15x_clk.c$983$1_0$596       stm8l15x_clk
     00009AE3  A$CLK__GetFlagStatusatus$64        stm8l15x_clk
     00009AE5  A$CLK__GetFlagStatusatus$65        stm8l15x_clk
     00009AE7  A$CLK__GetFlagStatusatus$66        stm8l15x_clk
     00009AE8  A$CLK__GetFlagStatusatus$67        stm8l15x_clk
     00009AE9  A$CLK__GetFlagStatusatus$70        stm8l15x_clk
     00009AE9  C$stm8l15x_clk.c$985$1_0$596       stm8l15x_clk
     00009AEA  A$CLK__GetFlagStatusatus$71        stm8l15x_clk
     00009AEC  A$CLK__GetFlagStatusatus$74        stm8l15x_clk
     00009AEC  C$stm8l15x_clk.c$987$2_0$597       stm8l15x_clk
     00009AEF  A$CLK__GetFlagStatusatus$75        stm8l15x_clk
     00009AF2  A$CLK__GetFlagStatusatus$79        stm8l15x_clk
     00009AF2  C$stm8l15x_clk.c$989$1_0$596       stm8l15x_clk
     00009AF4  A$CLK__GetFlagStatusatus$80        stm8l15x_clk
     00009AF6  A$CLK__GetFlagStatusatus$83        stm8l15x_clk
     00009AF6  C$stm8l15x_clk.c$991$2_0$598       stm8l15x_clk
     00009AF9  A$CLK__GetFlagStatusatus$84        stm8l15x_clk
     00009AFB  A$CLK__GetFlagStatusatus$88        stm8l15x_clk
     00009AFB  C$stm8l15x_clk.c$993$1_0$596       stm8l15x_clk
     00009AFD  A$CLK__GetFlagStatusatus$89        stm8l15x_clk
     00009AFF  A$CLK__GetFlagStatusatus$92        stm8l15x_clk
     00009AFF  C$stm8l15x_clk.c$995$2_0$599       stm8l15x_clk
     00009B02  A$CLK__GetFlagStatusatus$93        stm8l15x_clk
     00009B04  A$CLK__GetFlagStatusatus$97        stm8l15x_clk
     00009B04  C$stm8l15x_clk.c$997$1_0$596       stm8l15x_clk
     00009B06  A$CLK__GetFlagStatusatus$98        stm8l15x_clk
     00009B08  A$CLK__GetFlagStatusatus$101       stm8l15x_clk
     00009B08  C$stm8l15x_clk.c$999$2_0$600       stm8l15x_clk
     00009B0B  A$CLK__GetFlagStatusatus$102       stm8l15x_clk
     00009B0D  A$CLK__GetFlagStatusatus$106       stm8l15x_clk
     00009B0D  C$stm8l15x_clk.c$1001$1_0$596      stm8l15x_clk
     00009B0F  A$CLK__GetFlagStatusatus$107       stm8l15x_clk
     00009B11  A$CLK__GetFlagStatusatus$110       stm8l15x_clk
     00009B11  C$stm8l15x_clk.c$1003$2_0$601      stm8l15x_clk
     00009B14  A$CLK__GetFlagStatusatus$111       stm8l15x_clk
     00009B16  A$CLK__GetFlagStatusatus$115       stm8l15x_clk
     00009B16  C$stm8l15x_clk.c$1005$1_0$596      stm8l15x_clk
ASxxxx Linker V03.00 + NoICE + sdld,  page 96.
Hexadecimal  [32-Bits]

Area                                    Addr        Size        Decimal Bytes (Attributes)
--------------------------------        ----        ----        ------- ----- ------------
CODE                                00008306    000019D2 =        6610. bytes (REL,CON)

      Value  Global                              Global Defined In Module
      -----  --------------------------------   ------------------------
     00009B18  A$CLK__GetFlagStatusatus$116       stm8l15x_clk
     00009B1A  A$CLK__GetFlagStatusatus$119       stm8l15x_clk
     00009B1A  C$stm8l15x_clk.c$1007$2_0$602      stm8l15x_clk
     00009B1D  A$CLK__GetFlagStatusatus$120       stm8l15x_clk
     00009B1F  A$CLK__GetFlagStatusatus$124       stm8l15x_clk
     00009B1F  C$stm8l15x_clk.c$1009$1_0$596      stm8l15x_clk
     00009B21  A$CLK__GetFlagStatusatus$125       stm8l15x_clk
     00009B23  A$CLK__GetFlagStatusatus$128       stm8l15x_clk
     00009B23  C$stm8l15x_clk.c$1011$2_0$603      stm8l15x_clk
     00009B26  A$CLK__GetFlagStatusatus$129       stm8l15x_clk
     00009B28  A$CLK__GetFlagStatusatus$133       stm8l15x_clk
     00009B28  C$stm8l15x_clk.c$1013$1_0$596      stm8l15x_clk
     00009B2A  A$CLK__GetFlagStatusatus$134       stm8l15x_clk
     00009B2C  A$CLK__GetFlagStatusatus$137       stm8l15x_clk
     00009B2C  C$stm8l15x_clk.c$1015$2_0$604      stm8l15x_clk
     00009B2F  A$CLK__GetFlagStatusatus$138       stm8l15x_clk
     00009B31  A$CLK__GetFlagStatusatus$142       stm8l15x_clk
     00009B31  C$stm8l15x_clk.c$1019$2_0$605      stm8l15x_clk
     00009B34  A$CLK__GetFlagStatusatus$146       stm8l15x_clk
     00009B34  C$stm8l15x_clk.c$1023$1_0$596      stm8l15x_clk
     00009B35  A$CLK__GetFlagStatusatus$147       stm8l15x_clk
     00009B37  A$CLK__GetFlagStatusatus$148       stm8l15x_clk
     00009B39  A$CLK__GetFlagStatusatus$149       stm8l15x_clk
     00009B3A  A$CLK__GetFlagStatusatus$150       stm8l15x_clk
     00009B3B  A$CLK__GetFlagStatusatus$151       stm8l15x_clk
     00009B3D  A$CLK__GetFlagStatusatus$153       stm8l15x_clk
     00009B3F  A$CLK__GetFlagStatusatus$154       stm8l15x_clk
     00009B40  A$CLK__GetFlagStatusatus$155       stm8l15x_clk
     00009B42  A$CLK__GetFlagStatusatus$157       stm8l15x_clk
     00009B43  A$CLK__GetFlagStatusatus$158       stm8l15x_clk
     00009B45  A$CLK__GetFlagStatusatus$159       stm8l15x_clk
     00009B47  A$CLK__GetFlagStatusatus$162       stm8l15x_clk
     00009B47  C$stm8l15x_clk.c$1025$2_0$606      stm8l15x_clk
     00009B49  A$CLK__GetFlagStatusatus$163       stm8l15x_clk
     00009B4B  A$CLK__GetFlagStatusatus$167       stm8l15x_clk
     00009B4B  C$stm8l15x_clk.c$1029$2_0$607      stm8l15x_clk
     00009B4C  A$CLK__GetFlagStatusatus$173       stm8l15x_clk
     00009B4C  C$stm8l15x_clk.c$1033$1_0$596      stm8l15x_clk
     00009B4E  A$CLK__GetFlagStatusatus$176       stm8l15x_clk
     00009B4E  C$stm8l15x_clk.c$1034$1_0$596      stm8l15x_clk
     00009B4E  XG$CLK_GetFlagStatus$0$0           stm8l15x_clk
     00009B4F  A$ADC__VrefintCmdtCmd$58           stm8l15x_adc
     00009B4F  C$stm8l15x_adc.c$507$0_0$596       stm8l15x_adc
     00009B4F  C$stm8l15x_adc.c$512$1_0$596       stm8l15x_adc
     00009B4F  G$ADC_VrefintCmd$0$0               stm8l15x_adc
     00009B4F  _ADC_VrefintCmd                    stm8l15x_adc
     00009B51  A$ADC__VrefintCmdtCmd$59           stm8l15x_adc
     00009B53  A$ADC__VrefintCmdtCmd$62           stm8l15x_adc
     00009B53  C$stm8l15x_adc.c$515$2_0$597       stm8l15x_adc
     00009B56  A$ADC__VrefintCmdtCmd$63           stm8l15x_adc
     00009B5A  A$ADC__VrefintCmdtCmd$64           stm8l15x_adc
ASxxxx Linker V03.00 + NoICE + sdld,  page 97.
Hexadecimal  [32-Bits]

Area                                    Addr        Size        Decimal Bytes (Attributes)
--------------------------------        ----        ----        ------- ----- ------------
CODE                                00008306    000019D2 =        6610. bytes (REL,CON)

      Value  Global                              Global Defined In Module
      -----  --------------------------------   ------------------------
     00009B5C  A$ADC__VrefintCmdtCmd$65           stm8l15x_adc
     00009B5E  A$ADC__VrefintCmdtCmd$66           stm8l15x_adc
     00009B5F  A$ADC__VrefintCmdtCmd$67           stm8l15x_adc
     00009B61  A$ADC__VrefintCmdtCmd$71           stm8l15x_adc
     00009B61  C$stm8l15x_adc.c$520$2_0$598       stm8l15x_adc
     00009B64  A$ADC__VrefintCmdtCmd$72           stm8l15x_adc
     00009B68  A$ADC__VrefintCmdtCmd$73           stm8l15x_adc
     00009B6A  A$ADC__VrefintCmdtCmd$74           stm8l15x_adc
     00009B6C  A$ADC__VrefintCmdtCmd$75           stm8l15x_adc
     00009B6D  A$ADC__VrefintCmdtCmd$81           stm8l15x_adc
     00009B6D  C$stm8l15x_adc.c$522$1_0$596       stm8l15x_adc
     00009B6D  XG$ADC_VrefintCmd$0$0              stm8l15x_adc
     00009B6E  A$TIM4__TimeBaseInitInit$58        stm8l15x_tim4
     00009B6E  C$stm8l15x_tim4.c$167$0_0$596      stm8l15x_tim4
     00009B6E  C$stm8l15x_tim4.c$173$1_0$596      stm8l15x_tim4
     00009B6E  G$TIM4_TimeBaseInit$0$0            stm8l15x_tim4
     00009B6E  _TIM4_TimeBaseInit                 stm8l15x_tim4
     00009B71  A$TIM4__TimeBaseInitInit$59        stm8l15x_tim4
     00009B73  A$TIM4__TimeBaseInitInit$60        stm8l15x_tim4
     00009B74  A$TIM4__TimeBaseInitInit$63        stm8l15x_tim4
     00009B74  C$stm8l15x_tim4.c$175$1_0$596      stm8l15x_tim4
     00009B77  A$TIM4__TimeBaseInitInit$64        stm8l15x_tim4
     00009B79  A$TIM4__TimeBaseInitInit$65        stm8l15x_tim4
     00009B7A  A$TIM4__TimeBaseInitInit$68        stm8l15x_tim4
     00009B7A  C$stm8l15x_tim4.c$178$1_0$596      stm8l15x_tim4
     00009B7E  A$TIM4__TimeBaseInitInit$73        stm8l15x_tim4
     00009B7E  C$stm8l15x_tim4.c$179$1_0$596      stm8l15x_tim4
     00009B7E  XG$TIM4_TimeBaseInit$0$0           stm8l15x_tim4
     00009B7F  __mullong                          
     00009BFB  A$TIM4__ClearFlagFlag$58           stm8l15x_tim4
     00009BFB  C$stm8l15x_tim4.c$516$0_0$596      stm8l15x_tim4
     00009BFB  C$stm8l15x_tim4.c$521$1_0$596      stm8l15x_tim4
     00009BFB  G$TIM4_ClearFlag$0$0               stm8l15x_tim4
     00009BFB  _TIM4_ClearFlag                    stm8l15x_tim4
     00009BFD  A$TIM4__ClearFlagFlag$59           stm8l15x_tim4
     00009BFE  A$TIM4__ClearFlagFlag$60           stm8l15x_tim4
     00009C01  A$TIM4__ClearFlagFlag$65           stm8l15x_tim4
     00009C01  C$stm8l15x_tim4.c$522$1_0$596      stm8l15x_tim4
     00009C01  XG$TIM4_ClearFlag$0$0              stm8l15x_tim4
     00009C02  A$SPI__Cmd_Cmd$58                  stm8l15x_spi
     00009C02  C$stm8l15x_spi.c$228$0_0$596       stm8l15x_spi
     00009C02  C$stm8l15x_spi.c$235$1_0$596       stm8l15x_spi
     00009C02  G$SPI_Cmd$0$0                      stm8l15x_spi
     00009C02  _SPI_Cmd                           stm8l15x_spi
     00009C04  A$SPI__Cmd_Cmd$59                  stm8l15x_spi
     00009C05  A$SPI__Cmd_Cmd$62                  stm8l15x_spi
     00009C05  C$stm8l15x_spi.c$233$1_0$596       stm8l15x_spi
     00009C07  A$SPI__Cmd_Cmd$63                  stm8l15x_spi
     00009C09  A$SPI__Cmd_Cmd$66                  stm8l15x_spi
     00009C09  C$stm8l15x_spi.c$235$2_0$597       stm8l15x_spi
     00009C0B  A$SPI__Cmd_Cmd$67                  stm8l15x_spi
ASxxxx Linker V03.00 + NoICE + sdld,  page 98.
Hexadecimal  [32-Bits]

Area                                    Addr        Size        Decimal Bytes (Attributes)
--------------------------------        ----        ----        ------- ----- ------------
CODE                                00008306    000019D2 =        6610. bytes (REL,CON)

      Value  Global                              Global Defined In Module
      -----  --------------------------------   ------------------------
     00009C0C  A$SPI__Cmd_Cmd$68                  stm8l15x_spi
     00009C0E  A$SPI__Cmd_Cmd$72                  stm8l15x_spi
     00009C0E  C$stm8l15x_spi.c$239$2_0$598       stm8l15x_spi
     00009C10  A$SPI__Cmd_Cmd$73                  stm8l15x_spi
     00009C11  A$SPI__Cmd_Cmd$79                  stm8l15x_spi
     00009C11  C$stm8l15x_spi.c$241$1_0$596       stm8l15x_spi
     00009C11  XG$SPI_Cmd$0$0                     stm8l15x_spi
     00009C12  A$SPI__InitInit$56                 stm8l15x_spi
     00009C12  C$stm8l15x_spi.c$179$0_0$596       stm8l15x_spi
     00009C12  G$SPI_Init$0$0                     stm8l15x_spi
     00009C12  _SPI_Init                          stm8l15x_spi
     00009C13  A$SPI__InitInit$59                 stm8l15x_spi
     00009C13  C$stm8l15x_spi.c$196$1_0$596       stm8l15x_spi
     00009C15  A$SPI__InitInit$62                 stm8l15x_spi
     00009C15  C$stm8l15x_spi.c$197$1_0$596       stm8l15x_spi
     00009C17  A$SPI__InitInit$63                 stm8l15x_spi
     00009C19  A$SPI__InitInit$64                 stm8l15x_spi
     00009C1B  A$SPI__InitInit$67                 stm8l15x_spi
     00009C1B  C$stm8l15x_spi.c$198$1_0$596       stm8l15x_spi
     00009C1D  A$SPI__InitInit$68                 stm8l15x_spi
     00009C1F  A$SPI__InitInit$69                 stm8l15x_spi
     00009C21  A$SPI__InitInit$70                 stm8l15x_spi
     00009C23  A$SPI__InitInit$73                 stm8l15x_spi
     00009C23  C$stm8l15x_spi.c$202$1_0$596       stm8l15x_spi
     00009C24  A$SPI__InitInit$74                 stm8l15x_spi
     00009C25  A$SPI__InitInit$75                 stm8l15x_spi
     00009C27  A$SPI__InitInit$76                 stm8l15x_spi
     00009C29  A$SPI__InitInit$77                 stm8l15x_spi
     00009C2A  A$SPI__InitInit$80                 stm8l15x_spi
     00009C2A  C$stm8l15x_spi.c$206$1_0$596       stm8l15x_spi
     00009C2B  A$SPI__InitInit$83                 stm8l15x_spi
     00009C2B  C$stm8l15x_spi.c$204$1_0$596       stm8l15x_spi
     00009C2C  A$SPI__InitInit$84                 stm8l15x_spi
     00009C2E  A$SPI__InitInit$85                 stm8l15x_spi
     00009C30  A$SPI__InitInit$86                 stm8l15x_spi
     00009C31  A$SPI__InitInit$87                 stm8l15x_spi
     00009C33  A$SPI__InitInit$90                 stm8l15x_spi
     00009C33  C$stm8l15x_spi.c$206$2_0$597       stm8l15x_spi
     00009C35  A$SPI__InitInit$91                 stm8l15x_spi
     00009C36  A$SPI__InitInit$92                 stm8l15x_spi
     00009C38  A$SPI__InitInit$96                 stm8l15x_spi
     00009C38  C$stm8l15x_spi.c$210$2_0$598       stm8l15x_spi
     00009C3A  A$SPI__InitInit$97                 stm8l15x_spi
     00009C3B  A$SPI__InitInit$101                stm8l15x_spi
     00009C3B  C$stm8l15x_spi.c$214$1_0$596       stm8l15x_spi
     00009C3D  A$SPI__InitInit$102                stm8l15x_spi
     00009C3F  A$SPI__InitInit$103                stm8l15x_spi
     00009C41  A$SPI__InitInit$106                stm8l15x_spi
     00009C41  C$stm8l15x_spi.c$217$1_0$596       stm8l15x_spi
     00009C43  A$SPI__InitInit$107                stm8l15x_spi
     00009C46  A$SPI__InitInit$110                stm8l15x_spi
ASxxxx Linker V03.00 + NoICE + sdld,  page 99.
Hexadecimal  [32-Bits]

Area                                    Addr        Size        Decimal Bytes (Attributes)
--------------------------------        ----        ----        ------- ----- ------------
CODE                                00008306    000019D2 =        6610. bytes (REL,CON)

      Value  Global                              Global Defined In Module
      -----  --------------------------------   ------------------------
     00009C47  A$SPI__InitInit$113                stm8l15x_spi
     00009C47  C$stm8l15x_spi.c$218$1_0$596       stm8l15x_spi
     00009C47  XG$SPI_Init$0$0                    stm8l15x_spi
     00009C48  __divsint                          
     00009C5C  A$SYSCFG__REMAPPinConfignfig$56    stm8l15x_syscfg
     00009C5C  C$stm8l15x_syscfg.c$418$0_0$596    stm8l15x_syscfg
     00009C5C  G$SYSCFG_REMAPPinConfig$0$0        stm8l15x_syscfg
     00009C5C  _SYSCFG_REMAPPinConfig             stm8l15x_syscfg
     00009C5D  A$SYSCFG__REMAPPinConfignfig$59    stm8l15x_syscfg
     00009C5D  C$stm8l15x_syscfg.c$426$1_0$596    stm8l15x_syscfg
     00009C5F  A$SYSCFG__REMAPPinConfignfig$60    stm8l15x_syscfg
     00009C61  A$SYSCFG__REMAPPinConfignfig$61    stm8l15x_syscfg
     00009C63  A$SYSCFG__REMAPPinConfignfig$62    stm8l15x_syscfg
     00009C64  A$SYSCFG__REMAPPinConfignfig$65    stm8l15x_syscfg
     00009C64  C$stm8l15x_syscfg.c$431$1_0$596    stm8l15x_syscfg
     00009C65  A$SYSCFG__REMAPPinConfignfig$66    stm8l15x_syscfg
     00009C67  A$SYSCFG__REMAPPinConfignfig$67    stm8l15x_syscfg
     00009C68  A$SYSCFG__REMAPPinConfignfig$70    stm8l15x_syscfg
     00009C68  C$stm8l15x_syscfg.c$429$1_0$596    stm8l15x_syscfg
     00009C6A  A$SYSCFG__REMAPPinConfignfig$71    stm8l15x_syscfg
     00009C6C  A$SYSCFG__REMAPPinConfignfig$74    stm8l15x_syscfg
     00009C6C  C$stm8l15x_syscfg.c$431$2_0$597    stm8l15x_syscfg
     00009C6F  A$SYSCFG__REMAPPinConfignfig$75    stm8l15x_syscfg
     00009C71  A$SYSCFG__REMAPPinConfignfig$76    stm8l15x_syscfg
     00009C72  A$SYSCFG__REMAPPinConfignfig$77    stm8l15x_syscfg
     00009C73  A$SYSCFG__REMAPPinConfignfig$78    stm8l15x_syscfg
     00009C75  A$SYSCFG__REMAPPinConfignfig$79    stm8l15x_syscfg
     00009C77  A$SYSCFG__REMAPPinConfignfig$80    stm8l15x_syscfg
     00009C79  A$SYSCFG__REMAPPinConfignfig$81    stm8l15x_syscfg
     00009C7C  A$SYSCFG__REMAPPinConfignfig$84    stm8l15x_syscfg
     00009C7C  C$stm8l15x_syscfg.c$432$2_0$597    stm8l15x_syscfg
     00009C7E  A$SYSCFG__REMAPPinConfignfig$85    stm8l15x_syscfg
     00009C80  A$SYSCFG__REMAPPinConfignfig$86    stm8l15x_syscfg
     00009C83  A$SYSCFG__REMAPPinConfignfig$90    stm8l15x_syscfg
     00009C83  C$stm8l15x_syscfg.c$434$3_0$598    stm8l15x_syscfg
     00009C86  A$SYSCFG__REMAPPinConfignfig$91    stm8l15x_syscfg
     00009C88  A$SYSCFG__REMAPPinConfignfig$92    stm8l15x_syscfg
     00009C8A  A$SYSCFG__REMAPPinConfignfig$93    stm8l15x_syscfg
     00009C8C  A$SYSCFG__REMAPPinConfignfig$94    stm8l15x_syscfg
     00009C8E  A$SYSCFG__REMAPPinConfignfig$95    stm8l15x_syscfg
     00009C91  A$SYSCFG__REMAPPinConfignfig$96    stm8l15x_syscfg
     00009C93  A$SYSCFG__REMAPPinConfignfig$100   stm8l15x_syscfg
     00009C93  C$stm8l15x_syscfg.c$446$1_0$596    stm8l15x_syscfg
     00009C95  A$SYSCFG__REMAPPinConfignfig$101   stm8l15x_syscfg
     00009C97  A$SYSCFG__REMAPPinConfignfig$102   stm8l15x_syscfg
     00009C98  A$SYSCFG__REMAPPinConfignfig$103   stm8l15x_syscfg
     00009C9A  A$SYSCFG__REMAPPinConfignfig$104   stm8l15x_syscfg
     00009C9B  A$SYSCFG__REMAPPinConfignfig$107   stm8l15x_syscfg
     00009C9B  C$stm8l15x_syscfg.c$438$1_0$596    stm8l15x_syscfg
     00009C9D  A$SYSCFG__REMAPPinConfignfig$108   stm8l15x_syscfg
     00009C9F  A$SYSCFG__REMAPPinConfignfig$111   stm8l15x_syscfg
ASxxxx Linker V03.00 + NoICE + sdld,  page 100.
Hexadecimal  [32-Bits]

Area                                    Addr        Size        Decimal Bytes (Attributes)
--------------------------------        ----        ----        ------- ----- ------------
CODE                                00008306    000019D2 =        6610. bytes (REL,CON)

      Value  Global                              Global Defined In Module
      -----  --------------------------------   ------------------------
     00009C9F  C$stm8l15x_syscfg.c$442$1_0$596    stm8l15x_syscfg
     00009CA2  A$SYSCFG__REMAPPinConfignfig$114   stm8l15x_syscfg
     00009CA2  C$stm8l15x_syscfg.c$440$2_0$599    stm8l15x_syscfg
     00009CA4  A$SYSCFG__REMAPPinConfignfig$115   stm8l15x_syscfg
     00009CA6  A$SYSCFG__REMAPPinConfignfig$118   stm8l15x_syscfg
     00009CA6  C$stm8l15x_syscfg.c$442$3_0$600    stm8l15x_syscfg
     00009CA7  A$SYSCFG__REMAPPinConfignfig$119   stm8l15x_syscfg
     00009CA9  A$SYSCFG__REMAPPinConfignfig$120   stm8l15x_syscfg
     00009CAA  A$SYSCFG__REMAPPinConfignfig$121   stm8l15x_syscfg
     00009CAD  A$SYSCFG__REMAPPinConfignfig$122   stm8l15x_syscfg
     00009CAF  A$SYSCFG__REMAPPinConfignfig$126   stm8l15x_syscfg
     00009CAF  C$stm8l15x_syscfg.c$446$3_0$601    stm8l15x_syscfg
     00009CB1  A$SYSCFG__REMAPPinConfignfig$127   stm8l15x_syscfg
     00009CB4  A$SYSCFG__REMAPPinConfignfig$128   stm8l15x_syscfg
     00009CB6  A$SYSCFG__REMAPPinConfignfig$132   stm8l15x_syscfg
     00009CB6  C$stm8l15x_syscfg.c$454$1_0$596    stm8l15x_syscfg
     00009CB9  A$SYSCFG__REMAPPinConfignfig$135   stm8l15x_syscfg
     00009CB9  C$stm8l15x_syscfg.c$452$2_0$602    stm8l15x_syscfg
     00009CBB  A$SYSCFG__REMAPPinConfignfig$136   stm8l15x_syscfg
     00009CBD  A$SYSCFG__REMAPPinConfignfig$139   stm8l15x_syscfg
     00009CBD  C$stm8l15x_syscfg.c$454$3_0$603    stm8l15x_syscfg
     00009CBE  A$SYSCFG__REMAPPinConfignfig$140   stm8l15x_syscfg
     00009CC0  A$SYSCFG__REMAPPinConfignfig$141   stm8l15x_syscfg
     00009CC1  A$SYSCFG__REMAPPinConfignfig$142   stm8l15x_syscfg
     00009CC4  A$SYSCFG__REMAPPinConfignfig$143   stm8l15x_syscfg
     00009CC6  A$SYSCFG__REMAPPinConfignfig$147   stm8l15x_syscfg
     00009CC6  C$stm8l15x_syscfg.c$458$3_0$604    stm8l15x_syscfg
     00009CC8  A$SYSCFG__REMAPPinConfignfig$148   stm8l15x_syscfg
     00009CCB  A$SYSCFG__REMAPPinConfignfig$152   stm8l15x_syscfg
     00009CCC  A$SYSCFG__REMAPPinConfignfig$155   stm8l15x_syscfg
     00009CCC  C$stm8l15x_syscfg.c$461$1_0$596    stm8l15x_syscfg
     00009CCC  XG$SYSCFG_REMAPPinConfig$0$0       stm8l15x_syscfg
     00009CCD  __fast_long_neg                    

ASxxxx Linker V03.00 + NoICE + sdld,  page 101.

Files Linked                              [ module(s) ]

obj/main.rel                              [ main ]
obj/i2c.rel                               [ i2c ]
obj/spi.rel                               [ spi ]
obj/adc.rel                               [ adc ]
obj/nvdata.rel                            [ nvdata ]
obj/si4432.rel                            [ si4432 ]
obj/si7021.rel                            [ si7021 ]
obj/bh1750.rel                            [ bh1750 ]
obj/stm8l15x_it.rel                       [ stm8l15x_it ]
obj/application.rel                       [ application ]


Libraries Linked                          [ object file ]

spl/stm8l15x/spl.lib                      [ RTC__SetWakeUpCounter.rel ]
spl/stm8l15x/spl.lib                      [ GPIO__Init.rel ]
spl/stm8l15x/spl.lib                      [ USART__ReceiveData8.rel ]
spl/stm8l15x/spl.lib                      [ CLK__RTCClockConfig.rel ]
spl/stm8l15x/spl.lib                      [ TIM4__ClearITPendingBit.rel ]
spl/stm8l15x/spl.lib                      [ RTC__WakeUpCmd.rel ]
spl/stm8l15x/spl.lib                      [ SPI__GetFlagStatus.rel ]
spl/stm8l15x/spl.lib                      [ ADC__GetConversionValue.rel ]
spl/stm8l15x/spl.lib                      [ USART__SendData8.rel ]
spl/stm8l15x/spl.lib                      [ TIM4__ITConfig.rel ]
spl/stm8l15x/spl.lib                      [ RTC__ClearITPendingBit.rel ]
spl/stm8l15x/spl.lib                      [ I2C__Cmd.rel ]
spl/stm8l15x/spl.lib                      [ I2C__Init.rel ]
spl/stm8l15x/spl.lib                      [ PWR__UltraLowPowerCmd.rel ]
spl/stm8l15x/spl.lib                      [ ADC__ChannelCmd.rel ]
spl/stm8l15x/spl.lib                      [ FLASH__Unlock.rel ]
spl/stm8l15x/spl.lib                      [ ADC__Cmd.rel ]
spl/stm8l15x/spl.lib                      [ ADC__Init.rel ]
spl/stm8l15x/spl.lib                      [ RTC__ITConfig.rel ]
spl/stm8l15x/spl.lib                      [ EXTI__ClearITPendingBit.rel ]
spl/stm8l15x/spl.lib                      [ USART__Cmd.rel ]
spl/stm8l15x/spl.lib                      [ USART__Init.rel ]
/usr/local/bin/../share/sdcc/lib/stm8/stm8.lib
                                          [ _divslong.rel ]
spl/stm8l15x/spl.lib                      [ ADC__GetFlagStatus.rel ]
spl/stm8l15x/spl.lib                      [ ADC__SamplingTimeConfig.rel ]
/usr/local/bin/../share/sdcc/lib/stm8/stm8.lib
                                          [ _divulong.rel ]
spl/stm8l15x/spl.lib                      [ CLK__PeripheralClockConfig.rel ]
spl/stm8l15x/spl.lib                      [ SPI__ReceiveData.rel ]
/usr/local/bin/../share/sdcc/lib/stm8/stm8.lib
                                          [ _memset.rel ]
spl/stm8l15x/spl.lib                      [ CLK__SYSCLKDivConfig.rel ]
/usr/local/bin/../share/sdcc/lib/stm8/stm8.lib
                                          [ puts.rel ]
spl/stm8l15x/spl.lib                      [ USART__GetFlagStatus.rel ]
spl/stm8l15x/spl.lib                      [ SPI__SendData.rel ]
spl/stm8l15x/spl.lib                      [ I2C__ITConfig.rel ]
spl/stm8l15x/spl.lib                      [ TIM4__Cmd.rel ]
spl/stm8l15x/spl.lib                      [ CLK__GetClockFreq.rel ]
spl/stm8l15x/spl.lib                      [ FLASH__Lock.rel ]
spl/stm8l15x/spl.lib                      [ ADC__SoftwareStartConv.rel ]
spl/stm8l15x/spl.lib                      [ EXTI__SetPinSensitivity.rel ]
spl/stm8l15x/spl.lib                      [ RTC__WakeUpClockConfig.rel ]
spl/stm8l15x/spl.lib                      [ CLK__GetFlagStatus.rel ]
spl/stm8l15x/spl.lib                      [ ADC__VrefintCmd.rel ]
spl/stm8l15x/spl.lib                      [ TIM4__TimeBaseInit.rel ]
/usr/local/bin/../share/sdcc/lib/stm8/stm8.lib
                                          [ _mullong.rel ]
spl/stm8l15x/spl.lib                      [ TIM4__ClearFlag.rel ]
spl/stm8l15x/spl.lib                      [ SPI__Cmd.rel ]
spl/stm8l15x/spl.lib                      [ SPI__Init.rel ]
/usr/local/bin/../share/sdcc/lib/stm8/stm8.lib
                                          [ _divsint.rel ]
spl/stm8l15x/spl.lib                      [ SYSCFG__REMAPPinConfig.rel ]
/usr/local/bin/../share/sdcc/lib/stm8/stm8.lib
                                          [ _fast_long_neg.rel ]
spl/stm8l15x/spl.lib                      [ CLK__Const.rel ]

ASxxxx Linker V03.00 + NoICE + sdld,  page 102.

User Base Address Definitions

HOME = 0x8000
DATA = 0x0001
SSEG = 0xffffffff

